///////////////////////////////////////////////////////////////////////////////
//
// IAR ANSI C/C++ Compiler V7.70.1.11437/W32 for ARM      08/Jul/2019  02:43:04
// Copyright 1999-2016 IAR Systems AB.
//
//    Cpu mode     =  thumb
//    Endian       =  little
//    Source file  =  
//        D:\Freescale\无线节能14th\wireless_energy_saving_14th\14th_wireless_energy_saving_NXP\14th_wireless_energy_saving\project\14th_wireless_energy_saving\app\device\src\test.c
//    Command line =  
//        D:\Freescale\无线节能14th\wireless_energy_saving_14th\14th_wireless_energy_saving_NXP\14th_wireless_energy_saving\project\14th_wireless_energy_saving\app\device\src\test.c
//        -D LPLD_K60 -lCN
//        D:\Freescale\无线节能14th\wireless_energy_saving_14th\14th_wireless_energy_saving_NXP\14th_wireless_energy_saving\project\14th_wireless_energy_saving\iar\FLASH\List
//        -lB
//        D:\Freescale\无线节能14th\wireless_energy_saving_14th\14th_wireless_energy_saving_NXP\14th_wireless_energy_saving\project\14th_wireless_energy_saving\iar\FLASH\List
//        -o
//        D:\Freescale\无线节能14th\wireless_energy_saving_14th\14th_wireless_energy_saving_NXP\14th_wireless_energy_saving\project\14th_wireless_energy_saving\iar\FLASH\Obj
//        --no_cse --no_unroll --no_inline --no_code_motion --no_tbaa
//        --no_clustering --no_scheduling --debug --endian=little
//        --cpu=Cortex-M4 -e --fpu=None --dlib_config "D:\Program Files
//        (x86)\IAR Systems\Embedded Workbench
//        7.5\arm\INC\c\DLib_Config_Normal.h" -I
//        D:\Freescale\无线节能14th\wireless_energy_saving_14th\14th_wireless_energy_saving_NXP\14th_wireless_energy_saving\project\14th_wireless_energy_saving\iar\..\app\
//        -I
//        D:\Freescale\无线节能14th\wireless_energy_saving_14th\14th_wireless_energy_saving_NXP\14th_wireless_energy_saving\project\14th_wireless_energy_saving\iar\..\..\..\lib\CPU\
//        -I
//        D:\Freescale\无线节能14th\wireless_energy_saving_14th\14th_wireless_energy_saving_NXP\14th_wireless_energy_saving\project\14th_wireless_energy_saving\iar\..\..\..\lib\common\
//        -I
//        D:\Freescale\无线节能14th\wireless_energy_saving_14th\14th_wireless_energy_saving_NXP\14th_wireless_energy_saving\project\14th_wireless_energy_saving\iar\..\..\..\lib\LPLD\
//        -I
//        D:\Freescale\无线节能14th\wireless_energy_saving_14th\14th_wireless_energy_saving_NXP\14th_wireless_energy_saving\project\14th_wireless_energy_saving\iar\..\..\..\lib\LPLD\HW\
//        -I
//        D:\Freescale\无线节能14th\wireless_energy_saving_14th\14th_wireless_energy_saving_NXP\14th_wireless_energy_saving\project\14th_wireless_energy_saving\iar\..\..\..\lib\LPLD\DEV\
//        -I
//        D:\Freescale\无线节能14th\wireless_energy_saving_14th\14th_wireless_energy_saving_NXP\14th_wireless_energy_saving\project\14th_wireless_energy_saving\iar\..\..\..\lib\uCOS-II\Ports\
//        -I
//        D:\Freescale\无线节能14th\wireless_energy_saving_14th\14th_wireless_energy_saving_NXP\14th_wireless_energy_saving\project\14th_wireless_energy_saving\iar\..\..\..\lib\uCOS-II\Source\
//        -I
//        D:\Freescale\无线节能14th\wireless_energy_saving_14th\14th_wireless_energy_saving_NXP\14th_wireless_energy_saving\project\14th_wireless_energy_saving\iar\..\..\..\lib\FatFs\
//        -I
//        D:\Freescale\无线节能14th\wireless_energy_saving_14th\14th_wireless_energy_saving_NXP\14th_wireless_energy_saving\project\14th_wireless_energy_saving\iar\..\..\..\lib\FatFs\option\
//        -I
//        D:\Freescale\无线节能14th\wireless_energy_saving_14th\14th_wireless_energy_saving_NXP\14th_wireless_energy_saving\project\14th_wireless_energy_saving\iar\..\..\..\lib\USB\common\
//        -I
//        D:\Freescale\无线节能14th\wireless_energy_saving_14th\14th_wireless_energy_saving_NXP\14th_wireless_energy_saving\project\14th_wireless_energy_saving\iar\..\..\..\lib\USB\driver\
//        -I
//        D:\Freescale\无线节能14th\wireless_energy_saving_14th\14th_wireless_energy_saving_NXP\14th_wireless_energy_saving\project\14th_wireless_energy_saving\iar\..\..\..\lib\USB\descriptor\
//        -I
//        D:\Freescale\无线节能14th\wireless_energy_saving_14th\14th_wireless_energy_saving_NXP\14th_wireless_energy_saving\project\14th_wireless_energy_saving\iar\..\..\..\lib\USB\class\
//        -I
//        D:\Freescale\无线节能14th\wireless_energy_saving_14th\14th_wireless_energy_saving_NXP\14th_wireless_energy_saving\project\14th_wireless_energy_saving\iar\..\app\control\inc\
//        -I
//        D:\Freescale\无线节能14th\wireless_energy_saving_14th\14th_wireless_energy_saving_NXP\14th_wireless_energy_saving\project\14th_wireless_energy_saving\iar\..\app\debug\inc\
//        -I
//        D:\Freescale\无线节能14th\wireless_energy_saving_14th\14th_wireless_energy_saving_NXP\14th_wireless_energy_saving\project\14th_wireless_energy_saving\iar\..\app\device\inc\
//        -I
//        D:\Freescale\无线节能14th\wireless_energy_saving_14th\14th_wireless_energy_saving_NXP\14th_wireless_energy_saving\project\14th_wireless_energy_saving\iar\..\app\signal\inc\
//        -I
//        D:\Freescale\无线节能14th\wireless_energy_saving_14th\14th_wireless_energy_saving_NXP\14th_wireless_energy_saving\project\14th_wireless_energy_saving\iar\..\app\system\inc\
//        -I
//        D:\Freescale\无线节能14th\wireless_energy_saving_14th\14th_wireless_energy_saving_NXP\14th_wireless_energy_saving\project\14th_wireless_energy_saving\iar\..\app\control\src\
//        -I
//        D:\Freescale\无线节能14th\wireless_energy_saving_14th\14th_wireless_energy_saving_NXP\14th_wireless_energy_saving\project\14th_wireless_energy_saving\iar\..\app\debug\src\
//        -I
//        D:\Freescale\无线节能14th\wireless_energy_saving_14th\14th_wireless_energy_saving_NXP\14th_wireless_energy_saving\project\14th_wireless_energy_saving\iar\..\app\device\src\
//        -I
//        D:\Freescale\无线节能14th\wireless_energy_saving_14th\14th_wireless_energy_saving_NXP\14th_wireless_energy_saving\project\14th_wireless_energy_saving\iar\..\app\signal\src\
//        -I
//        D:\Freescale\无线节能14th\wireless_energy_saving_14th\14th_wireless_energy_saving_NXP\14th_wireless_energy_saving\project\14th_wireless_energy_saving\iar\..\app\system\src\
//        -I
//        D:\Freescale\无线节能14th\wireless_energy_saving_14th\14th_wireless_energy_saving_NXP\14th_wireless_energy_saving\project\14th_wireless_energy_saving\iar\..\app\drivers\inc\
//        -I
//        D:\Freescale\无线节能14th\wireless_energy_saving_14th\14th_wireless_energy_saving_NXP\14th_wireless_energy_saving\project\14th_wireless_energy_saving\iar\..\app\drivers\src\
//        -I
//        D:\Freescale\无线节能14th\wireless_energy_saving_14th\14th_wireless_energy_saving_NXP\14th_wireless_energy_saving\project\14th_wireless_energy_saving\iar\..\app\charge\inc\
//        -I
//        D:\Freescale\无线节能14th\wireless_energy_saving_14th\14th_wireless_energy_saving_NXP\14th_wireless_energy_saving\project\14th_wireless_energy_saving\iar\..\app\charge\src\
//        -I
//        D:\Freescale\无线节能14th\wireless_energy_saving_14th\14th_wireless_energy_saving_NXP\14th_wireless_energy_saving\project\14th_wireless_energy_saving\iar\..\..\..\lib\LPLD\FUNC\
//        -Ol -I "D:\Program Files (x86)\IAR Systems\Embedded Workbench
//        7.5\arm\CMSIS\Include\" -D ARM_MATH_CM4
//    Locale       =  Chinese (Simplified)_China.936
//    List file    =  
//        D:\Freescale\无线节能14th\wireless_energy_saving_14th\14th_wireless_energy_saving_NXP\14th_wireless_energy_saving\project\14th_wireless_energy_saving\iar\FLASH\List\test.s
//
///////////////////////////////////////////////////////////////////////////////

        #define SHT_PROGBITS 0x1

        EXTERN Get_Five_Dir_Value
        EXTERN Get_Switch_Value
        EXTERN Set_LED
        EXTERN VisualScope_Send
        EXTERN __aeabi_f2iz
        EXTERN __aeabi_fmul
        EXTERN __aeabi_i2f
        EXTERN get_infrared_command
        EXTERN gf_angularspeed_rotate
        EXTERN gf_annulus_angle
        EXTERN gf_camber_angle
        EXTERN gf_gyro_bias_z
        EXTERN gf_obstacle_error
        EXTERN gf_pitch_angle
        EXTERN gf_pitch_velocity
        EXTERN gf_roll_angle
        EXTERN gf_roll_velocity
        EXTERN gf_slope_picth_angle
        EXTERN gf_slope_start_angle
        EXTERN gf_visual_scope_data
        EXTERN gf_yaw_angle
        EXTERN gf_yaw_velocity
        EXTERN gi_aviodence_angle
        EXTERN gi_inductor_adc
        EXTERN gi_inductor_t_offset
        EXTERN gi_inductor_value
        EXTERN gi_inductor_x_offset
        EXTERN gi_infrared_2nd_AD_distance
        EXTERN gi_infrared_AD_distance
        EXTERN gi_pitch_variance
        EXTERN gi_regression_angle
        EXTERN gi_signal_gradient
        EXTERN gi_x_signal_gradient
        EXTERN gi_y_signal_gradient
        EXTERN gl_annulus_distance_record
        EXTERN gl_car_error
        EXTERN gl_car_running_distance
        EXTERN gl_car_speed
        EXTERN gl_car_speed_set
        EXTERN gl_direction_output
        EXTERN gl_left_encoder_value
        EXTERN gl_obstacle_distance_record
        EXTERN gl_pwm_output
        EXTERN gl_right_encoder_value
        EXTERN gl_slope_distance_record
        EXTERN gl_time_infrared
        EXTERN guc_annulus_direction
        EXTERN guc_annulus_state
        EXTERN guc_avoidance_direction_flag
        EXTERN guc_car_run_flag
        EXTERN guc_distinction_flag
        EXTERN guc_first_obstacle_slope_flag
        EXTERN guc_infrared_ranging_flag
        EXTERN guc_obstacle_complete_flag
        EXTERN guc_obstacle_flag
        EXTERN guc_obstacle_state
        EXTERN guc_reed_state_value
        EXTERN guc_slope_complete_flag
        EXTERN guc_slope_pitch_flag
        EXTERN guc_slope_state
        EXTERN guc_switch_pin_value
        EXTERN oled_display_6x8str
        EXTERN oled_display_boolean
        EXTERN oled_fill
        EXTERN oled_print_short

        PUBLIC Annulus_Test
        PUBLIC Encoder_Test
        PUBLIC Five_Dir_Test
        PUBLIC Gradient_Test
        PUBLIC LED_Test
        PUBLIC MPU6050_Test
        PUBLIC Obstacle_Test
        PUBLIC Signal_Test
        PUBLIC Slope_Test
        PUBLIC Switch_Test
        PUBLIC Test_Infrared

// D:\Freescale\无线节能14th\wireless_energy_saving_14th\14th_wireless_energy_saving_NXP\14th_wireless_energy_saving\project\14th_wireless_energy_saving\app\device\src\test.c
//    1 /*=============================================
//    2     @file         test.c
//    3     @brief        各模块测试函数
//    4     @programmer   Beyond Hsueh
//    5 =============================================*/
//    6 
//    7 #include "test.h"
//    8 
//    9 /*===============================================================
//   10         @note      春未老，风细柳斜斜；
//   11                    试上超然台上望，半壕春水一城花，烟雨暗千家。
//   12                    寒食后，酒醒却咨嗟；
//   13                    休对故人思故国，且将新火试新茶，诗酒趁年华。
//   14 ==================================================================*/   
//   15 
//   16 /*===============================================================
//   17 	@brief      拨码测试
//   18 	@function   将拨码值显示在oled上   
//   19 ==================================================================*/

        SECTION `.text`:CODE:NOROOT(1)
        THUMB
//   20 void Switch_Test()
//   21 {
Switch_Test:
        PUSH     {R7,LR}
//   22     uint8 uc_switch_pin_temp;
//   23 
//   24     //OLED_Fill(0x00);
//   25     oled_display_6x8str(20,0,"switch test");
        LDR.W    R2,??DataTable7_12
        MOVS     R1,#+0
        MOVS     R0,#+20
        BL       oled_display_6x8str
//   26     //读取拨码器
//   27     Get_Switch_Value(&uc_switch_pin_temp, SW0_0);//第0位
        MOVS     R1,#+0
        MOV      R0,SP
        BL       Get_Switch_Value
//   28     guc_switch_pin_value[0] = uc_switch_pin_temp;
        LDRB     R0,[SP, #+0]
        LDR.W    R1,??DataTable9_2
        STRB     R0,[R1, #+0]
//   29     Get_Switch_Value(&uc_switch_pin_temp, SW0_1);//第1位
        MOVS     R1,#+1
        MOV      R0,SP
        BL       Get_Switch_Value
//   30     guc_switch_pin_value[1] = uc_switch_pin_temp;
        LDRB     R0,[SP, #+0]
        LDR.W    R1,??DataTable9_2
        STRB     R0,[R1, #+1]
//   31     Get_Switch_Value(&uc_switch_pin_temp, SW1_0);//第2位
        MOVS     R1,#+2
        MOV      R0,SP
        BL       Get_Switch_Value
//   32     guc_switch_pin_value[2] = uc_switch_pin_temp;
        LDRB     R0,[SP, #+0]
        LDR.W    R1,??DataTable9_2
        STRB     R0,[R1, #+2]
//   33     Get_Switch_Value(&uc_switch_pin_temp, SW1_1);//第3位
        MOVS     R1,#+3
        MOV      R0,SP
        BL       Get_Switch_Value
//   34     guc_switch_pin_value[3] = uc_switch_pin_temp;	
        LDRB     R0,[SP, #+0]
        LDR.W    R1,??DataTable9_2
        STRB     R0,[R1, #+3]
//   35     Get_Switch_Value(&uc_switch_pin_temp, SW1_2);//第4位
        MOVS     R1,#+4
        MOV      R0,SP
        BL       Get_Switch_Value
//   36     guc_switch_pin_value[4] = uc_switch_pin_temp;		
        LDRB     R0,[SP, #+0]
        LDR.W    R1,??DataTable9_2
        STRB     R0,[R1, #+4]
//   37     Get_Switch_Value(&uc_switch_pin_temp, SW1_3);//第5位
        MOVS     R1,#+5
        MOV      R0,SP
        BL       Get_Switch_Value
//   38     guc_switch_pin_value[5] = uc_switch_pin_temp;	
        LDRB     R0,[SP, #+0]
        LDR.W    R1,??DataTable9_2
        STRB     R0,[R1, #+5]
//   39     
//   40     //显示拨码器		
//   41     oled_display_boolean(30, 4, guc_switch_pin_value[0]);
        LDR.W    R0,??DataTable9_2
        LDRSB    R0,[R0, #+0]
        MOVS     R2,R0
        SXTB     R2,R2            ;; SignExt  R2,R2,#+24,#+24
        MOVS     R1,#+4
        MOVS     R0,#+30
        BL       oled_display_boolean
//   42     oled_display_boolean(50, 4, guc_switch_pin_value[1]);
        LDR.W    R0,??DataTable9_2
        LDRSB    R0,[R0, #+1]
        MOVS     R2,R0
        SXTB     R2,R2            ;; SignExt  R2,R2,#+24,#+24
        MOVS     R1,#+4
        MOVS     R0,#+50
        BL       oled_display_boolean
//   43     oled_display_boolean(70, 4, guc_switch_pin_value[2]);
        LDR.W    R0,??DataTable9_2
        LDRSB    R0,[R0, #+2]
        MOVS     R2,R0
        SXTB     R2,R2            ;; SignExt  R2,R2,#+24,#+24
        MOVS     R1,#+4
        MOVS     R0,#+70
        BL       oled_display_boolean
//   44     
//   45     oled_display_boolean(30, 5, guc_switch_pin_value[3]);
        LDR.W    R0,??DataTable9_2
        LDRSB    R0,[R0, #+3]
        MOVS     R2,R0
        SXTB     R2,R2            ;; SignExt  R2,R2,#+24,#+24
        MOVS     R1,#+5
        MOVS     R0,#+30
        BL       oled_display_boolean
//   46     oled_display_boolean(50, 5, guc_switch_pin_value[4]);
        LDR.W    R0,??DataTable9_2
        LDRSB    R0,[R0, #+4]
        MOVS     R2,R0
        SXTB     R2,R2            ;; SignExt  R2,R2,#+24,#+24
        MOVS     R1,#+5
        MOVS     R0,#+50
        BL       oled_display_boolean
//   47     oled_display_boolean(70, 5, guc_switch_pin_value[5]);	
        LDR.W    R0,??DataTable9_2
        LDRSB    R0,[R0, #+5]
        MOVS     R2,R0
        SXTB     R2,R2            ;; SignExt  R2,R2,#+24,#+24
        MOVS     R1,#+5
        MOVS     R0,#+70
        BL       oled_display_boolean
//   48 
//   49 }
        POP      {R0,PC}          ;; return
//   50 
//   51 /*===============================================================
//   52 	@brief      LED测试
//   53 	@function   对应拨码值
//   54 ==================================================================*/

        SECTION `.text`:CODE:NOROOT(1)
        THUMB
//   55 void LED_Test()
//   56 {
LED_Test:
        PUSH     {R7,LR}
//   57     uint8 uc_switch_value = 0;
        MOVS     R0,#+0
//   58     
//   59     //OLED_Fill(0x00);
//   60     oled_display_6x8str(30,0,"led test");
        LDR.W    R2,??DataTable7_13
        MOVS     R1,#+0
        MOVS     R0,#+30
        BL       oled_display_6x8str
//   61     oled_display_6x8str(0,3,"set switch to test led");
        LDR.W    R2,??DataTable9_12
        MOVS     R1,#+3
        MOVS     R0,#+0
        BL       oled_display_6x8str
//   62 
//   63     //根据拨码值更新led灯的状态
//   64     uc_switch_value = Get_Switch_Value(NULL,0);
        MOVS     R1,#+0
        MOVS     R0,#+0
        BL       Get_Switch_Value
//   65     uc_switch_value &= 0x1f;
        ANDS     R0,R0,#0x1F
//   66     Set_LED(uc_switch_value);	
        UXTB     R0,R0            ;; ZeroExt  R0,R0,#+24,#+24
        BL       Set_LED
//   67 }
        POP      {R0,PC}          ;; return
//   68 
//   69 /*===============================================================
//   70 	@brief      五向按键测试
//   71 	@function   将按键值显示在oled上   
//   72 ==================================================================*/

        SECTION `.text`:CODE:NOROOT(1)
        THUMB
//   73 void Five_Dir_Test()
//   74 {
Five_Dir_Test:
        PUSH     {R7,LR}
        B.N      ??Five_Dir_Test_0
//   75     uint8 uc_button_value;
//   76     
//   77     while(1)
//   78     {
//   79         uc_button_value = Get_Five_Dir_Value(&uc_button_value);
//   80         
//   81         switch(uc_button_value)
//   82         {
//   83           case FIVE_DIR_UP:
//   84             oled_display_6x8str(1,1,"up");
??Five_Dir_Test_1:
        ADR.N    R2,??DataTable3  ;; 0x75, 0x70, 0x00, 0x00
        MOVS     R1,#+1
        MOVS     R0,#+1
        BL       oled_display_6x8str
//   85 //            LPLD_GPIO_Output_b(LED_PIN_1_PORT, LED_PIN_1, LED_BIT_ON);
//   86 //            LPLD_GPIO_Output_b(LED_PIN_2_PORT, LED_PIN_2, LED_BIT_OFF);
//   87 //            LPLD_GPIO_Output_b(LED_PIN_3_PORT, LED_PIN_3, LED_BIT_OFF);
//   88 //            LPLD_GPIO_Output_b(LED_PIN_4_PORT, LED_PIN_4, LED_BIT_OFF);
//   89             break;
??Five_Dir_Test_0:
        MOV      R0,SP
        BL       Get_Five_Dir_Value
        STRB     R0,[SP, #+0]
        LDRB     R0,[SP, #+0]
        CMP      R0,#+1
        BEQ.N    ??Five_Dir_Test_1
        BCC.N    ??Five_Dir_Test_2
        CMP      R0,#+3
        BEQ.N    ??Five_Dir_Test_3
        BCC.N    ??Five_Dir_Test_4
        CMP      R0,#+5
        BEQ.N    ??Five_Dir_Test_5
        BCC.N    ??Five_Dir_Test_6
        B.N      ??Five_Dir_Test_2
//   90             
//   91           case FIVE_DIR_LEFT:
//   92             oled_display_6x8str(1,2,"left");
??Five_Dir_Test_3:
        LDR.W    R2,??DataTable7_14
        MOVS     R1,#+2
        MOVS     R0,#+1
        BL       oled_display_6x8str
//   93 //            LPLD_GPIO_Output_b(LED_PIN_1_PORT, LED_PIN_1, LED_BIT_ON);
//   94 //            LPLD_GPIO_Output_b(LED_PIN_2_PORT, LED_PIN_2, LED_BIT_OFF);
//   95 //            LPLD_GPIO_Output_b(LED_PIN_3_PORT, LED_PIN_3, LED_BIT_OFF);
//   96 //            LPLD_GPIO_Output_b(LED_PIN_4_PORT, LED_PIN_4, LED_BIT_OFF);
//   97             break;  
        B.N      ??Five_Dir_Test_0
//   98             
//   99           case FIVE_DIR_DOWN:
//  100             oled_display_6x8str(1,3,"down");
??Five_Dir_Test_4:
        LDR.W    R2,??DataTable7_15
        MOVS     R1,#+3
        MOVS     R0,#+1
        BL       oled_display_6x8str
//  101 //            LPLD_GPIO_Output_b(LED_PIN_1_PORT, LED_PIN_1, LED_BIT_OFF);
//  102 //            LPLD_GPIO_Output_b(LED_PIN_2_PORT, LED_PIN_2, LED_BIT_ON);
//  103 //            LPLD_GPIO_Output_b(LED_PIN_3_PORT, LED_PIN_3, LED_BIT_OFF);
//  104 //            LPLD_GPIO_Output_b(LED_PIN_4_PORT, LED_PIN_4, LED_BIT_OFF);
//  105             break;
        B.N      ??Five_Dir_Test_0
//  106             
//  107           case FIVE_DIR_RIGHT:
//  108             oled_display_6x8str(1,4,"right");
??Five_Dir_Test_6:
        LDR.W    R2,??DataTable7_16
        MOVS     R1,#+4
        MOVS     R0,#+1
        BL       oled_display_6x8str
//  109 //            LPLD_GPIO_Output_b(LED_PIN_1_PORT, LED_PIN_1, LED_BIT_OFF);
//  110 //            LPLD_GPIO_Output_b(LED_PIN_2_PORT, LED_PIN_2, LED_BIT_OFF);
//  111 //            LPLD_GPIO_Output_b(LED_PIN_3_PORT, LED_PIN_3, LED_BIT_ON);
//  112 //            LPLD_GPIO_Output_b(LED_PIN_4_PORT, LED_PIN_4, LED_BIT_OFF);
//  113             break;
        B.N      ??Five_Dir_Test_0
//  114           
//  115           case FIVE_DIR_OK:
//  116             oled_display_6x8str(1,5,"ok");
??Five_Dir_Test_5:
        ADR.N    R2,??DataTable4  ;; 0x6F, 0x6B, 0x00, 0x00
        MOVS     R1,#+5
        MOVS     R0,#+1
        BL       oled_display_6x8str
//  117 //            LPLD_GPIO_Output_b(LED_PIN_1_PORT, LED_PIN_1, LED_BIT_OFF);
//  118 //            LPLD_GPIO_Output_b(LED_PIN_2_PORT, LED_PIN_2, LED_BIT_OFF);
//  119 //            LPLD_GPIO_Output_b(LED_PIN_3_PORT, LED_PIN_3, LED_BIT_OFF);
//  120 //            LPLD_GPIO_Output_b(LED_PIN_4_PORT, LED_PIN_4, LED_BIT_ON);
//  121             break;
        B.N      ??Five_Dir_Test_0
//  122             
//  123           default:
//  124             oled_fill(0x00);
??Five_Dir_Test_2:
        MOVS     R0,#+0
        BL       oled_fill
//  125 //            LPLD_GPIO_Output_b(LED_PIN_1_PORT, LED_PIN_1, LED_BIT_ON);
//  126 //            LPLD_GPIO_Output_b(LED_PIN_2_PORT, LED_PIN_2, LED_BIT_ON);
//  127 //            LPLD_GPIO_Output_b(LED_PIN_3_PORT, LED_PIN_3, LED_BIT_ON);
//  128 //            LPLD_GPIO_Output_b(LED_PIN_4_PORT, LED_PIN_4, LED_BIT_ON);
//  129             break;
        B.N      ??Five_Dir_Test_0
//  130         }
//  131     }  
//  132 }
//  133 
//  134 /*===============================================================
//  135 	@brief      编码器测试
//  136 	@function   显示编码盘计数和转速   
//  137 ==================================================================*/

        SECTION `.text`:CODE:NOROOT(1)
        THUMB
//  138 void Encoder_Test()
//  139 {
Encoder_Test:
        PUSH     {R7,LR}
//  140       //显示小数值
//  141   
//  142     //以前计数存在bug，不在计时器中进行
//  143     //Get_Car_Distance();
//  144       
//  145     oled_print_short(60,2,gl_car_speed);
        LDR.W    R0,??DataTable7_17
        LDR      R2,[R0, #+0]
        SXTH     R2,R2            ;; SignExt  R2,R2,#+16,#+16
        MOVS     R1,#+2
        MOVS     R0,#+60
        BL       oled_print_short
//  146     oled_print_short(60,3,gl_car_running_distance);
        LDR.W    R0,??DataTable7_18
        LDR      R2,[R0, #+0]
        SXTH     R2,R2            ;; SignExt  R2,R2,#+16,#+16
        MOVS     R1,#+3
        MOVS     R0,#+60
        BL       oled_print_short
//  147     
//  148     oled_display_6x8str(0,2,"speed");
        LDR.W    R2,??DataTable7_19
        MOVS     R1,#+2
        MOVS     R0,#+0
        BL       oled_display_6x8str
//  149     oled_display_6x8str(0,3,"distance");
        LDR.W    R2,??DataTable7_20
        MOVS     R1,#+3
        MOVS     R0,#+0
        BL       oled_display_6x8str
//  150     oled_display_6x8str(0,4,"left");
        LDR.W    R2,??DataTable7_14
        MOVS     R1,#+4
        MOVS     R0,#+0
        BL       oled_display_6x8str
//  151     oled_display_6x8str(0,5,"right");
        LDR.W    R2,??DataTable7_16
        MOVS     R1,#+5
        MOVS     R0,#+0
        BL       oled_display_6x8str
//  152     oled_display_6x8str(0,6,"time");
        LDR.W    R2,??DataTable7_21
        MOVS     R1,#+6
        MOVS     R0,#+0
        BL       oled_display_6x8str
//  153     oled_display_6x8str(0,7,"pwm");
        ADR.N    R2,??DataTable4_1  ;; "pwm"
        MOVS     R1,#+7
        MOVS     R0,#+0
        BL       oled_display_6x8str
//  154 
//  155     oled_print_short(60,4,gl_left_encoder_value);
        LDR.W    R0,??DataTable7_22
        LDR      R2,[R0, #+0]
        SXTH     R2,R2            ;; SignExt  R2,R2,#+16,#+16
        MOVS     R1,#+4
        MOVS     R0,#+60
        BL       oled_print_short
//  156     oled_print_short(60,5,gl_right_encoder_value);
        LDR.W    R0,??DataTable10_1
        LDR      R2,[R0, #+0]
        SXTH     R2,R2            ;; SignExt  R2,R2,#+16,#+16
        MOVS     R1,#+5
        MOVS     R0,#+60
        BL       oled_print_short
//  157 
//  158 
//  159     //VisualScope_Send(SCOPE_DATA_MODE);//待测试蓝牙
//  160 }
        POP      {R0,PC}          ;; return

        SECTION `.text`:CODE:NOROOT(2)
        SECTION_TYPE SHT_PROGBITS, 0
        DATA
??DataTable3:
        DC8      0x75, 0x70, 0x00, 0x00
//  161 
//  162 /*===============================================================
//  163 	@brief      电感信号测试
//  164 ==================================================================*/

        SECTION `.text`:CODE:NOROOT(1)
        THUMB
//  165 void Signal_Test(vint16 inductor_value[])
//  166 {
Signal_Test:
        PUSH     {R3-R5,LR}
        MOVS     R4,R0
//  167     int8 i;
//  168     
//  169     for(i = NUM_INDUCTOR - 1; i >= 0; i--)
        MOVS     R5,#+4
        B.N      ??Signal_Test_0
//  170     {
//  171       oled_print_short(20, i, inductor_value[i]);
??Signal_Test_1:
        SXTB     R5,R5            ;; SignExt  R5,R5,#+24,#+24
        LDRSH    R2,[R4, R5, LSL #+1]
        MOVS     R1,R5
        UXTB     R1,R1            ;; ZeroExt  R1,R1,#+24,#+24
        MOVS     R0,#+20
        BL       oled_print_short
//  172       gf_visual_scope_data[i]=inductor_value[i]*10;
        SXTB     R5,R5            ;; SignExt  R5,R5,#+24,#+24
        LDRSH    R0,[R4, R5, LSL #+1]
        MOVS     R1,#+10
        SMULBB   R0,R0,R1
        BL       __aeabi_i2f
        LDR.W    R1,??DataTable7_23
        SXTB     R5,R5            ;; SignExt  R5,R5,#+24,#+24
        STR      R0,[R1, R5, LSL #+2]
//  173     }
        SUBS     R5,R5,#+1
??Signal_Test_0:
        SXTB     R5,R5            ;; SignExt  R5,R5,#+24,#+24
        CMP      R5,#+0
        BPL.N    ??Signal_Test_1
//  174     oled_print_short(20,5,gi_inductor_x_offset);
        LDR.W    R0,??DataTable8_1
        LDRSH    R2,[R0, #+0]
        MOVS     R1,#+5
        MOVS     R0,#+20
        BL       oled_print_short
//  175     oled_print_short(20,6,guc_reed_state_value);
        LDR.W    R0,??DataTable9_20
        LDRB     R0,[R0, #+0]
        MOVS     R2,R0
        SXTH     R2,R2            ;; SignExt  R2,R2,#+16,#+16
        MOVS     R1,#+6
        MOVS     R0,#+20
        BL       oled_print_short
//  176     oled_print_short(20,7,gl_direction_output);
        LDR.W    R0,??DataTable9_21
        LDR      R2,[R0, #+0]
        SXTH     R2,R2            ;; SignExt  R2,R2,#+16,#+16
        MOVS     R1,#+7
        MOVS     R0,#+20
        BL       oled_print_short
//  177     
//  178     oled_print_short(85,0,gl_car_error);
        LDR.W    R0,??DataTable9_22
        LDR      R2,[R0, #+0]
        SXTH     R2,R2            ;; SignExt  R2,R2,#+16,#+16
        MOVS     R1,#+0
        MOVS     R0,#+85
        BL       oled_print_short
//  179     oled_print_short(85,1,gl_pwm_output);
        LDR.W    R0,??DataTable9_23
        LDR      R2,[R0, #+0]
        SXTH     R2,R2            ;; SignExt  R2,R2,#+16,#+16
        MOVS     R1,#+1
        MOVS     R0,#+85
        BL       oled_print_short
//  180     oled_print_short(85,2,gl_car_speed);
        LDR.W    R0,??DataTable7_17
        LDR      R2,[R0, #+0]
        SXTH     R2,R2            ;; SignExt  R2,R2,#+16,#+16
        MOVS     R1,#+2
        MOVS     R0,#+85
        BL       oled_print_short
//  181     oled_print_short(85,3,gl_car_speed_set);
        LDR.W    R0,??DataTable9_24
        LDR      R2,[R0, #+0]
        SXTH     R2,R2            ;; SignExt  R2,R2,#+16,#+16
        MOVS     R1,#+3
        MOVS     R0,#+85
        BL       oled_print_short
//  182     
//  183     if(guc_distinction_flag == GENERAL)
        LDR.W    R0,??DataTable9_25
        LDRB     R0,[R0, #+0]
        CMP      R0,#+1
        BNE.N    ??Signal_Test_2
//  184     {
//  185         oled_display_6x8str(85,4,"GENERAL");
        LDR.W    R2,??DataTable9_26
        MOVS     R1,#+4
        MOVS     R0,#+85
        BL       oled_display_6x8str
        B.N      ??Signal_Test_3
//  186     }
//  187     else if(guc_distinction_flag == CRUCIFIX)
??Signal_Test_2:
        LDR.W    R0,??DataTable9_25
        LDRB     R0,[R0, #+0]
        CMP      R0,#+2
        BNE.N    ??Signal_Test_4
//  188     {
//  189         oled_display_6x8str(85,4,"CRUCIFIX");
        LDR.W    R2,??DataTable9_27
        MOVS     R1,#+4
        MOVS     R0,#+85
        BL       oled_display_6x8str
        B.N      ??Signal_Test_3
//  190     }
//  191     else if(guc_distinction_flag == ANNULUS)
??Signal_Test_4:
        LDR.W    R0,??DataTable9_25
        LDRB     R0,[R0, #+0]
        CMP      R0,#+3
        BNE.N    ??Signal_Test_5
//  192     {
//  193         oled_display_6x8str(85,4,"ANNULUS");
        LDR.W    R2,??DataTable9_28
        MOVS     R1,#+4
        MOVS     R0,#+85
        BL       oled_display_6x8str
        B.N      ??Signal_Test_3
//  194     }
//  195     else if(guc_distinction_flag == SLOPE)
??Signal_Test_5:
        LDR.W    R0,??DataTable9_25
        LDRB     R0,[R0, #+0]
        CMP      R0,#+4
        BNE.N    ??Signal_Test_6
//  196     {
//  197         oled_display_6x8str(85,4,"SLOPE");
        LDR.W    R2,??DataTable9_29
        MOVS     R1,#+4
        MOVS     R0,#+85
        BL       oled_display_6x8str
        B.N      ??Signal_Test_3
//  198     }
//  199     else if(guc_distinction_flag == OBSTACLE)
??Signal_Test_6:
        LDR.W    R0,??DataTable9_25
        LDRB     R0,[R0, #+0]
        CMP      R0,#+5
        BNE.N    ??Signal_Test_7
//  200     {
//  201         oled_display_6x8str(85,4,"OBSTACLE");
        LDR.W    R2,??DataTable9_30
        MOVS     R1,#+4
        MOVS     R0,#+85
        BL       oled_display_6x8str
        B.N      ??Signal_Test_3
//  202     }
//  203     else
//  204     {
//  205         oled_display_6x8str(85,4,"NO");
??Signal_Test_7:
        ADR.N    R2,??DataTable4_2  ;; 0x4E, 0x4F, 0x00, 0x00
        MOVS     R1,#+4
        MOVS     R0,#+85
        BL       oled_display_6x8str
//  206     }
//  207     
//  208     oled_print_short(85,5,guc_car_run_flag);
??Signal_Test_3:
        LDR.W    R0,??DataTable9_31
        LDRB     R0,[R0, #+0]
        MOVS     R2,R0
        SXTH     R2,R2            ;; SignExt  R2,R2,#+16,#+16
        MOVS     R1,#+5
        MOVS     R0,#+85
        BL       oled_print_short
//  209     oled_print_short(85,6,gl_car_running_distance);
        LDR.W    R0,??DataTable7_18
        LDR      R2,[R0, #+0]
        SXTH     R2,R2            ;; SignExt  R2,R2,#+16,#+16
        MOVS     R1,#+6
        MOVS     R0,#+85
        BL       oled_print_short
//  210     oled_print_short(85,7,(int16)gf_angularspeed_rotate);
        LDR.W    R0,??DataTable9_32
        LDR      R0,[R0, #+0]
        BL       __aeabi_f2iz
        MOVS     R2,R0
        SXTH     R2,R2            ;; SignExt  R2,R2,#+16,#+16
        MOVS     R1,#+7
        MOVS     R0,#+85
        BL       oled_print_short
//  211     
//  212     oled_display_6x8str(1,0,"y1");
        ADR.N    R2,??DataTable4_3  ;; 0x79, 0x31, 0x00, 0x00
        MOVS     R1,#+0
        MOVS     R0,#+1
        BL       oled_display_6x8str
//  213     oled_display_6x8str(1,1,"x1");
        ADR.N    R2,??DataTable4_4  ;; 0x78, 0x31, 0x00, 0x00
        MOVS     R1,#+1
        MOVS     R0,#+1
        BL       oled_display_6x8str
//  214     oled_display_6x8str(1,2,"m1");
        ADR.N    R2,??DataTable4_5  ;; 0x6D, 0x31, 0x00, 0x00
        MOVS     R1,#+2
        MOVS     R0,#+1
        BL       oled_display_6x8str
//  215     oled_display_6x8str(1,3,"x2");
        ADR.N    R2,??DataTable4_6  ;; 0x78, 0x32, 0x00, 0x00
        MOVS     R1,#+3
        MOVS     R0,#+1
        BL       oled_display_6x8str
//  216     oled_display_6x8str(1,4,"y2");
        ADR.N    R2,??DataTable4_7  ;; 0x79, 0x32, 0x00, 0x00
        MOVS     R1,#+4
        MOVS     R0,#+1
        BL       oled_display_6x8str
//  217     oled_display_6x8str(1,5,"xe");
        ADR.N    R2,??DataTable4_8  ;; 0x78, 0x65, 0x00, 0x00
        MOVS     R1,#+5
        MOVS     R0,#+1
        BL       oled_display_6x8str
//  218     oled_display_6x8str(1,6,"rd");
        ADR.N    R2,??DataTable4_9  ;; 0x72, 0x64, 0x00, 0x00
        MOVS     R1,#+6
        MOVS     R0,#+1
        BL       oled_display_6x8str
//  219     oled_display_6x8str(1,7,"dr");
        ADR.N    R2,??DataTable4_10  ;; 0x64, 0x72, 0x00, 0x00
        MOVS     R1,#+7
        MOVS     R0,#+1
        BL       oled_display_6x8str
//  220     
//  221     oled_display_6x8str(65,0,"err");
        ADR.N    R2,??DataTable5  ;; "err"
        MOVS     R1,#+0
        MOVS     R0,#+65
        BL       oled_display_6x8str
//  222     oled_display_6x8str(65,1,"pwm");
        ADR.N    R2,??DataTable4_1  ;; "pwm"
        MOVS     R1,#+1
        MOVS     R0,#+65
        BL       oled_display_6x8str
//  223     oled_display_6x8str(65,2,"spd");
        ADR.N    R2,??DataTable5_1  ;; "spd"
        MOVS     R1,#+2
        MOVS     R0,#+65
        BL       oled_display_6x8str
//  224     oled_display_6x8str(65,3,"set");
        ADR.N    R2,??DataTable5_2  ;; "set"
        MOVS     R1,#+3
        MOVS     R0,#+65
        BL       oled_display_6x8str
//  225     oled_display_6x8str(65,4,"sta");
        ADR.N    R2,??DataTable5_3  ;; "sta"
        MOVS     R1,#+4
        MOVS     R0,#+65
        BL       oled_display_6x8str
//  226     oled_display_6x8str(65,5,"run");
        ADR.N    R2,??DataTable5_4  ;; "run"
        MOVS     R1,#+5
        MOVS     R0,#+65
        BL       oled_display_6x8str
//  227     oled_display_6x8str(65,6,"dis");
        ADR.N    R2,??DataTable5_5  ;; "dis"
        MOVS     R1,#+6
        MOVS     R0,#+65
        BL       oled_display_6x8str
//  228     oled_display_6x8str(65,7,"yaw");
        ADR.N    R2,??DataTable5_6  ;; "yaw"
        MOVS     R1,#+7
        MOVS     R0,#+65
        BL       oled_display_6x8str
//  229     
//  230 //    VisualScope_Send(SCOPE_DATA_MODE);//待测试蓝牙
//  231 }
        POP      {R0,R4,R5,PC}    ;; return

        SECTION `.text`:CODE:NOROOT(2)
        SECTION_TYPE SHT_PROGBITS, 0
        DATA
??DataTable4:
        DC8      0x6F, 0x6B, 0x00, 0x00

        SECTION `.text`:CODE:NOROOT(2)
        SECTION_TYPE SHT_PROGBITS, 0
        DATA
??DataTable4_1:
        DC8      "pwm"

        SECTION `.text`:CODE:NOROOT(2)
        SECTION_TYPE SHT_PROGBITS, 0
        DATA
??DataTable4_2:
        DC8      0x4E, 0x4F, 0x00, 0x00

        SECTION `.text`:CODE:NOROOT(2)
        SECTION_TYPE SHT_PROGBITS, 0
        DATA
??DataTable4_3:
        DC8      0x79, 0x31, 0x00, 0x00

        SECTION `.text`:CODE:NOROOT(2)
        SECTION_TYPE SHT_PROGBITS, 0
        DATA
??DataTable4_4:
        DC8      0x78, 0x31, 0x00, 0x00

        SECTION `.text`:CODE:NOROOT(2)
        SECTION_TYPE SHT_PROGBITS, 0
        DATA
??DataTable4_5:
        DC8      0x6D, 0x31, 0x00, 0x00

        SECTION `.text`:CODE:NOROOT(2)
        SECTION_TYPE SHT_PROGBITS, 0
        DATA
??DataTable4_6:
        DC8      0x78, 0x32, 0x00, 0x00

        SECTION `.text`:CODE:NOROOT(2)
        SECTION_TYPE SHT_PROGBITS, 0
        DATA
??DataTable4_7:
        DC8      0x79, 0x32, 0x00, 0x00

        SECTION `.text`:CODE:NOROOT(2)
        SECTION_TYPE SHT_PROGBITS, 0
        DATA
??DataTable4_8:
        DC8      0x78, 0x65, 0x00, 0x00

        SECTION `.text`:CODE:NOROOT(2)
        SECTION_TYPE SHT_PROGBITS, 0
        DATA
??DataTable4_9:
        DC8      0x72, 0x64, 0x00, 0x00

        SECTION `.text`:CODE:NOROOT(2)
        SECTION_TYPE SHT_PROGBITS, 0
        DATA
??DataTable4_10:
        DC8      0x64, 0x72, 0x00, 0x00
//  232 
//  233 /*===============================================================
//  234 	@brief      环岛信号测试
//  235 ==================================================================*/

        SECTION `.text`:CODE:NOROOT(1)
        THUMB
//  236 void Annulus_Test(vint16 inductor_value[])
//  237 {
Annulus_Test:
        PUSH     {R3-R5,LR}
        MOVS     R4,R0
//  238     int8 i;
//  239 
//  240     for(i = NUM_INDUCTOR - 1; i >= 0; i--)
        MOVS     R5,#+4
        B.N      ??Annulus_Test_0
//  241     {
//  242       oled_print_short(20, i, inductor_value[i]);
??Annulus_Test_1:
        SXTB     R5,R5            ;; SignExt  R5,R5,#+24,#+24
        LDRSH    R2,[R4, R5, LSL #+1]
        MOVS     R1,R5
        UXTB     R1,R1            ;; ZeroExt  R1,R1,#+24,#+24
        MOVS     R0,#+20
        BL       oled_print_short
//  243       gf_visual_scope_data[i]=inductor_value[i]*10;
        SXTB     R5,R5            ;; SignExt  R5,R5,#+24,#+24
        LDRSH    R0,[R4, R5, LSL #+1]
        MOVS     R1,#+10
        SMULBB   R0,R0,R1
        BL       __aeabi_i2f
        LDR.W    R1,??DataTable7_23
        SXTB     R5,R5            ;; SignExt  R5,R5,#+24,#+24
        STR      R0,[R1, R5, LSL #+2]
//  244     }
        SUBS     R5,R5,#+1
??Annulus_Test_0:
        SXTB     R5,R5            ;; SignExt  R5,R5,#+24,#+24
        CMP      R5,#+0
        BPL.N    ??Annulus_Test_1
//  245     oled_print_short(20,5,gi_inductor_x_offset);
        LDR.W    R0,??DataTable8_1
        LDRSH    R2,[R0, #+0]
        MOVS     R1,#+5
        MOVS     R0,#+20
        BL       oled_print_short
//  246     oled_print_short(20,6,gi_inductor_t_offset);
        LDR.W    R0,??DataTable10_17
        LDRSH    R2,[R0, #+0]
        MOVS     R1,#+6
        MOVS     R0,#+20
        BL       oled_print_short
//  247     oled_print_short(20,7,gl_car_error);
        LDR.W    R0,??DataTable9_22
        LDR      R2,[R0, #+0]
        SXTH     R2,R2            ;; SignExt  R2,R2,#+16,#+16
        MOVS     R1,#+7
        MOVS     R0,#+20
        BL       oled_print_short
//  248     
//  249     oled_print_short(85,0,guc_annulus_state);
        LDR.W    R0,??DataTable10_18
        LDRB     R0,[R0, #+0]
        MOVS     R2,R0
        SXTH     R2,R2            ;; SignExt  R2,R2,#+16,#+16
        MOVS     R1,#+0
        MOVS     R0,#+85
        BL       oled_print_short
//  250     
//  251     if(guc_annulus_direction == LEFT)
        LDR.W    R0,??DataTable10_19
        LDRB     R0,[R0, #+0]
        CMP      R0,#+2
        BNE.N    ??Annulus_Test_2
//  252     {
//  253         oled_display_6x8str(85,1,"left");
        LDR.W    R2,??DataTable7_14
        MOVS     R1,#+1
        MOVS     R0,#+85
        BL       oled_display_6x8str
        B.N      ??Annulus_Test_3
//  254     }
//  255     else if(guc_annulus_direction == RIGHT)
??Annulus_Test_2:
        LDR.W    R0,??DataTable10_19
        LDRB     R0,[R0, #+0]
        CMP      R0,#+1
        BNE.N    ??Annulus_Test_4
//  256     {
//  257         oled_display_6x8str(85,1,"right");
        LDR.W    R2,??DataTable7_16
        MOVS     R1,#+1
        MOVS     R0,#+85
        BL       oled_display_6x8str
        B.N      ??Annulus_Test_3
//  258     }
//  259     else
//  260         oled_display_6x8str(85,1," no ");
??Annulus_Test_4:
        LDR.W    R2,??DataTable10_20
        MOVS     R1,#+1
        MOVS     R0,#+85
        BL       oled_display_6x8str
//  261     
//  262     oled_print_short(85,2,gl_car_speed);
??Annulus_Test_3:
        LDR.W    R0,??DataTable7_17
        LDR      R2,[R0, #+0]
        SXTH     R2,R2            ;; SignExt  R2,R2,#+16,#+16
        MOVS     R1,#+2
        MOVS     R0,#+85
        BL       oled_print_short
//  263     oled_print_short(85,3,(int16)(gf_yaw_angle));
        LDR.W    R0,??DataTable10_21
        LDR      R0,[R0, #+0]
        BL       __aeabi_f2iz
        MOVS     R2,R0
        SXTH     R2,R2            ;; SignExt  R2,R2,#+16,#+16
        MOVS     R1,#+3
        MOVS     R0,#+85
        BL       oled_print_short
//  264     oled_print_short(85,4,(int16)(10*gf_yaw_velocity));
        LDR.W    R0,??DataTable10_22
        LDR      R1,[R0, #+0]
        LDR.W    R0,??DataTable10_23  ;; 0x41200000
        BL       __aeabi_fmul
        BL       __aeabi_f2iz
        MOVS     R2,R0
        SXTH     R2,R2            ;; SignExt  R2,R2,#+16,#+16
        MOVS     R1,#+4
        MOVS     R0,#+85
        BL       oled_print_short
//  265     oled_print_short(85,5,(int16)(gf_annulus_angle));
        LDR.W    R0,??DataTable10_24
        LDR      R0,[R0, #+0]
        BL       __aeabi_f2iz
        MOVS     R2,R0
        SXTH     R2,R2            ;; SignExt  R2,R2,#+16,#+16
        MOVS     R1,#+5
        MOVS     R0,#+85
        BL       oled_print_short
//  266     oled_print_short(85,6,gl_annulus_distance_record);
        LDR.W    R0,??DataTable10_25
        LDR      R2,[R0, #+0]
        SXTH     R2,R2            ;; SignExt  R2,R2,#+16,#+16
        MOVS     R1,#+6
        MOVS     R0,#+85
        BL       oled_print_short
//  267     oled_print_short(85,7,gl_car_running_distance);
        LDR.W    R0,??DataTable7_18
        LDR      R2,[R0, #+0]
        SXTH     R2,R2            ;; SignExt  R2,R2,#+16,#+16
        MOVS     R1,#+7
        MOVS     R0,#+85
        BL       oled_print_short
//  268     
//  269     oled_display_6x8str(1,0,"y1");
        ADR.N    R2,??DataTable6  ;; 0x79, 0x31, 0x00, 0x00
        MOVS     R1,#+0
        MOVS     R0,#+1
        BL       oled_display_6x8str
//  270     oled_display_6x8str(1,1,"x1");
        ADR.N    R2,??DataTable6_1  ;; 0x78, 0x31, 0x00, 0x00
        MOVS     R1,#+1
        MOVS     R0,#+1
        BL       oled_display_6x8str
//  271     oled_display_6x8str(1,2,"m1");
        ADR.N    R2,??DataTable6_2  ;; 0x6D, 0x31, 0x00, 0x00
        MOVS     R1,#+2
        MOVS     R0,#+1
        BL       oled_display_6x8str
//  272     oled_display_6x8str(1,3,"x2");
        ADR.N    R2,??DataTable6_3  ;; 0x78, 0x32, 0x00, 0x00
        MOVS     R1,#+3
        MOVS     R0,#+1
        BL       oled_display_6x8str
//  273     oled_display_6x8str(1,4,"y2");
        ADR.N    R2,??DataTable6_4  ;; 0x79, 0x32, 0x00, 0x00
        MOVS     R1,#+4
        MOVS     R0,#+1
        BL       oled_display_6x8str
//  274     oled_display_6x8str(1,5,"xe");
        ADR.N    R2,??DataTable6_5  ;; 0x78, 0x65, 0x00, 0x00
        MOVS     R1,#+5
        MOVS     R0,#+1
        BL       oled_display_6x8str
//  275     oled_display_6x8str(1,6,"ye");
        ADR.N    R2,??DataTable6_6  ;; 0x79, 0x65, 0x00, 0x00
        MOVS     R1,#+6
        MOVS     R0,#+1
        BL       oled_display_6x8str
//  276     oled_display_6x8str(1,7,"er");
        ADR.N    R2,??DataTable6_7  ;; 0x65, 0x72, 0x00, 0x00
        MOVS     R1,#+7
        MOVS     R0,#+1
        BL       oled_display_6x8str
//  277     
//  278     oled_display_6x8str(65,0,"ans");
        ADR.N    R2,??DataTable6_8  ;; "ans"
        MOVS     R1,#+0
        MOVS     R0,#+65
        BL       oled_display_6x8str
//  279     oled_display_6x8str(65,1,"dir");
        ADR.N    R2,??DataTable6_9  ;; "dir"
        MOVS     R1,#+1
        MOVS     R0,#+65
        BL       oled_display_6x8str
//  280     oled_display_6x8str(65,2,"spd");
        ADR.N    R2,??DataTable5_1  ;; "spd"
        MOVS     R1,#+2
        MOVS     R0,#+65
        BL       oled_display_6x8str
//  281     oled_display_6x8str(65,3,"g");
        ADR.N    R2,??DataTable6_10  ;; "g"
        MOVS     R1,#+3
        MOVS     R0,#+65
        BL       oled_display_6x8str
//  282     oled_display_6x8str(65,4,"v");
        ADR.N    R2,??DataTable6_11  ;; "v"
        MOVS     R1,#+4
        MOVS     R0,#+65
        BL       oled_display_6x8str
//  283     oled_display_6x8str(65,5,"aus");
        ADR.N    R2,??DataTable6_12  ;; "aus"
        MOVS     R1,#+5
        MOVS     R0,#+65
        BL       oled_display_6x8str
//  284     oled_display_6x8str(65,6,"rs");
        ADR.N    R2,??DataTable6_13  ;; 0x72, 0x73, 0x00, 0x00
        MOVS     R1,#+6
        MOVS     R0,#+65
        BL       oled_display_6x8str
//  285     oled_display_6x8str(65,7,"ds");
        ADR.N    R2,??DataTable7  ;; 0x64, 0x73, 0x00, 0x00
        MOVS     R1,#+7
        MOVS     R0,#+65
        BL       oled_display_6x8str
//  286     
//  287     VisualScope_Send(SCOPE_DATA_MODE);//待测试蓝牙
        MOVS     R0,#+0
        BL       VisualScope_Send
//  288 }
        POP      {R0,R4,R5,PC}    ;; return

        SECTION `.text`:CODE:NOROOT(2)
        SECTION_TYPE SHT_PROGBITS, 0
        DATA
??DataTable5:
        DC8      "err"

        SECTION `.text`:CODE:NOROOT(2)
        SECTION_TYPE SHT_PROGBITS, 0
        DATA
??DataTable5_1:
        DC8      "spd"

        SECTION `.text`:CODE:NOROOT(2)
        SECTION_TYPE SHT_PROGBITS, 0
        DATA
??DataTable5_2:
        DC8      "set"

        SECTION `.text`:CODE:NOROOT(2)
        SECTION_TYPE SHT_PROGBITS, 0
        DATA
??DataTable5_3:
        DC8      "sta"

        SECTION `.text`:CODE:NOROOT(2)
        SECTION_TYPE SHT_PROGBITS, 0
        DATA
??DataTable5_4:
        DC8      "run"

        SECTION `.text`:CODE:NOROOT(2)
        SECTION_TYPE SHT_PROGBITS, 0
        DATA
??DataTable5_5:
        DC8      "dis"

        SECTION `.text`:CODE:NOROOT(2)
        SECTION_TYPE SHT_PROGBITS, 0
        DATA
??DataTable5_6:
        DC8      "yaw"
//  289 
//  290 /*===============================================================
//  291 	@brief      电感变化率测试
//  292 ==================================================================*/

        SECTION `.text`:CODE:NOROOT(1)
        THUMB
//  293 void Gradient_Test()
//  294 {
Gradient_Test:
        PUSH     {R4,LR}
//  295     int8 i;
//  296 
//  297     for(i = NUM_INDUCTOR - 1; i >= 0; i--)
        MOVS     R4,#+4
        B.N      ??Gradient_Test_0
//  298     {
//  299       oled_print_short(20, NUM_INDUCTOR - 1 - i, gi_signal_gradient[i]);
??Gradient_Test_1:
        LDR.W    R0,??DataTable10_26
        SXTB     R4,R4            ;; SignExt  R4,R4,#+24,#+24
        LDRSH    R2,[R0, R4, LSL #+1]
        RSBS     R1,R4,#+4
        UXTB     R1,R1            ;; ZeroExt  R1,R1,#+24,#+24
        MOVS     R0,#+20
        BL       oled_print_short
//  300       gf_visual_scope_data[i] = gi_signal_gradient[i]*10;
        LDR.W    R0,??DataTable10_26
        SXTB     R4,R4            ;; SignExt  R4,R4,#+24,#+24
        LDRSH    R0,[R0, R4, LSL #+1]
        MOVS     R1,#+10
        SMULBB   R0,R0,R1
        BL       __aeabi_i2f
        LDR.N    R1,??DataTable7_23
        SXTB     R4,R4            ;; SignExt  R4,R4,#+24,#+24
        STR      R0,[R1, R4, LSL #+2]
//  301     }
        SUBS     R4,R4,#+1
??Gradient_Test_0:
        SXTB     R4,R4            ;; SignExt  R4,R4,#+24,#+24
        CMP      R4,#+0
        BPL.N    ??Gradient_Test_1
//  302     oled_print_short(20,5,gi_x_signal_gradient);
        LDR.W    R0,??DataTable10_27
        LDRSH    R2,[R0, #+0]
        MOVS     R1,#+5
        MOVS     R0,#+20
        BL       oled_print_short
//  303     oled_print_short(20,6,gi_y_signal_gradient);
        LDR.W    R0,??DataTable10_28
        LDRSH    R2,[R0, #+0]
        MOVS     R1,#+6
        MOVS     R0,#+20
        BL       oled_print_short
//  304     oled_print_short(20,7,gl_pwm_output);
        LDR.W    R0,??DataTable9_23
        LDR      R2,[R0, #+0]
        SXTH     R2,R2            ;; SignExt  R2,R2,#+16,#+16
        MOVS     R1,#+7
        MOVS     R0,#+20
        BL       oled_print_short
//  305     
//  306     for(i = NUM_INDUCTOR - 1; i >= 0; i--)
        MOVS     R4,#+4
        B.N      ??Gradient_Test_2
//  307     {
//  308       oled_print_short(85,NUM_INDUCTOR - 1 - i,gi_inductor_adc[i]);
??Gradient_Test_3:
        LDR.W    R0,??DataTable10_29
        SXTB     R4,R4            ;; SignExt  R4,R4,#+24,#+24
        LDRSH    R2,[R0, R4, LSL #+1]
        RSBS     R1,R4,#+4
        UXTB     R1,R1            ;; ZeroExt  R1,R1,#+24,#+24
        MOVS     R0,#+85
        BL       oled_print_short
//  309       gf_visual_scope_data[i] = gi_inductor_adc[i]*10;
        LDR.W    R0,??DataTable10_29
        SXTB     R4,R4            ;; SignExt  R4,R4,#+24,#+24
        LDRSH    R0,[R0, R4, LSL #+1]
        MOVS     R1,#+10
        SMULBB   R0,R0,R1
        BL       __aeabi_i2f
        LDR.N    R1,??DataTable7_23
        SXTB     R4,R4            ;; SignExt  R4,R4,#+24,#+24
        STR      R0,[R1, R4, LSL #+2]
//  310     }
        SUBS     R4,R4,#+1
??Gradient_Test_2:
        SXTB     R4,R4            ;; SignExt  R4,R4,#+24,#+24
        CMP      R4,#+0
        BPL.N    ??Gradient_Test_3
//  311     oled_print_short(85,5,gi_inductor_x_offset);
        LDR.W    R0,??DataTable8_1
        LDRSH    R2,[R0, #+0]
        MOVS     R1,#+5
        MOVS     R0,#+85
        BL       oled_print_short
//  312     oled_print_short(85,6,gi_inductor_t_offset);
        LDR.W    R0,??DataTable10_17
        LDRSH    R2,[R0, #+0]
        MOVS     R1,#+6
        MOVS     R0,#+85
        BL       oled_print_short
//  313     oled_print_short(85,7,gl_car_running_distance);
        LDR.N    R0,??DataTable7_18
        LDR      R2,[R0, #+0]
        SXTH     R2,R2            ;; SignExt  R2,R2,#+16,#+16
        MOVS     R1,#+7
        MOVS     R0,#+85
        BL       oled_print_short
//  314     
//  315     oled_display_6x8str(1,0,"y1");
        ADR.N    R2,??DataTable6  ;; 0x79, 0x31, 0x00, 0x00
        MOVS     R1,#+0
        MOVS     R0,#+1
        BL       oled_display_6x8str
//  316     oled_display_6x8str(1,1,"x1");
        ADR.N    R2,??DataTable6_1  ;; 0x78, 0x31, 0x00, 0x00
        MOVS     R1,#+1
        MOVS     R0,#+1
        BL       oled_display_6x8str
//  317     oled_display_6x8str(1,2,"m1");
        ADR.N    R2,??DataTable6_2  ;; 0x6D, 0x31, 0x00, 0x00
        MOVS     R1,#+2
        MOVS     R0,#+1
        BL       oled_display_6x8str
//  318     oled_display_6x8str(1,3,"x2");
        ADR.N    R2,??DataTable6_3  ;; 0x78, 0x32, 0x00, 0x00
        MOVS     R1,#+3
        MOVS     R0,#+1
        BL       oled_display_6x8str
//  319     oled_display_6x8str(1,4,"y2");
        ADR.N    R2,??DataTable6_4  ;; 0x79, 0x32, 0x00, 0x00
        MOVS     R1,#+4
        MOVS     R0,#+1
        BL       oled_display_6x8str
//  320     oled_display_6x8str(1,5,"xe");
        ADR.N    R2,??DataTable6_5  ;; 0x78, 0x65, 0x00, 0x00
        MOVS     R1,#+5
        MOVS     R0,#+1
        BL       oled_display_6x8str
//  321     oled_display_6x8str(1,6,"ye");
        ADR.N    R2,??DataTable6_6  ;; 0x79, 0x65, 0x00, 0x00
        MOVS     R1,#+6
        MOVS     R0,#+1
        BL       oled_display_6x8str
//  322     oled_display_6x8str(1,7,"ds");
        ADR.N    R2,??DataTable7  ;; 0x64, 0x73, 0x00, 0x00
        MOVS     R1,#+7
        MOVS     R0,#+1
        BL       oled_display_6x8str
//  323     
//  324     oled_display_6x8str(65,0,"y1");
        ADR.N    R2,??DataTable6  ;; 0x79, 0x31, 0x00, 0x00
        MOVS     R1,#+0
        MOVS     R0,#+65
        BL       oled_display_6x8str
//  325     oled_display_6x8str(65,1,"x1");
        ADR.N    R2,??DataTable6_1  ;; 0x78, 0x31, 0x00, 0x00
        MOVS     R1,#+1
        MOVS     R0,#+65
        BL       oled_display_6x8str
//  326     oled_display_6x8str(65,2,"m1");
        ADR.N    R2,??DataTable6_2  ;; 0x6D, 0x31, 0x00, 0x00
        MOVS     R1,#+2
        MOVS     R0,#+65
        BL       oled_display_6x8str
//  327     oled_display_6x8str(65,3,"x2");
        ADR.N    R2,??DataTable6_3  ;; 0x78, 0x32, 0x00, 0x00
        MOVS     R1,#+3
        MOVS     R0,#+65
        BL       oled_display_6x8str
//  328     oled_display_6x8str(65,4,"y2");
        ADR.N    R2,??DataTable6_4  ;; 0x79, 0x32, 0x00, 0x00
        MOVS     R1,#+4
        MOVS     R0,#+65
        BL       oled_display_6x8str
//  329     oled_display_6x8str(65,5,"xe");
        ADR.N    R2,??DataTable6_5  ;; 0x78, 0x65, 0x00, 0x00
        MOVS     R1,#+5
        MOVS     R0,#+65
        BL       oled_display_6x8str
//  330     oled_display_6x8str(65,6,"ye");
        ADR.N    R2,??DataTable6_6  ;; 0x79, 0x65, 0x00, 0x00
        MOVS     R1,#+6
        MOVS     R0,#+65
        BL       oled_display_6x8str
//  331     oled_display_6x8str(65,7,"sp");
        ADR.N    R2,??DataTable7_1  ;; 0x73, 0x70, 0x00, 0x00
        MOVS     R1,#+7
        MOVS     R0,#+65
        BL       oled_display_6x8str
//  332     
//  333     VisualScope_Send(SCOPE_DATA_MODE);//待测试蓝牙
        MOVS     R0,#+0
        BL       VisualScope_Send
//  334 }
        POP      {R4,PC}          ;; return

        SECTION `.text`:CODE:NOROOT(2)
        SECTION_TYPE SHT_PROGBITS, 0
        DATA
??DataTable6:
        DC8      0x79, 0x31, 0x00, 0x00

        SECTION `.text`:CODE:NOROOT(2)
        SECTION_TYPE SHT_PROGBITS, 0
        DATA
??DataTable6_1:
        DC8      0x78, 0x31, 0x00, 0x00

        SECTION `.text`:CODE:NOROOT(2)
        SECTION_TYPE SHT_PROGBITS, 0
        DATA
??DataTable6_2:
        DC8      0x6D, 0x31, 0x00, 0x00

        SECTION `.text`:CODE:NOROOT(2)
        SECTION_TYPE SHT_PROGBITS, 0
        DATA
??DataTable6_3:
        DC8      0x78, 0x32, 0x00, 0x00

        SECTION `.text`:CODE:NOROOT(2)
        SECTION_TYPE SHT_PROGBITS, 0
        DATA
??DataTable6_4:
        DC8      0x79, 0x32, 0x00, 0x00

        SECTION `.text`:CODE:NOROOT(2)
        SECTION_TYPE SHT_PROGBITS, 0
        DATA
??DataTable6_5:
        DC8      0x78, 0x65, 0x00, 0x00

        SECTION `.text`:CODE:NOROOT(2)
        SECTION_TYPE SHT_PROGBITS, 0
        DATA
??DataTable6_6:
        DC8      0x79, 0x65, 0x00, 0x00

        SECTION `.text`:CODE:NOROOT(2)
        SECTION_TYPE SHT_PROGBITS, 0
        DATA
??DataTable6_7:
        DC8      0x65, 0x72, 0x00, 0x00

        SECTION `.text`:CODE:NOROOT(2)
        SECTION_TYPE SHT_PROGBITS, 0
        DATA
??DataTable6_8:
        DC8      "ans"

        SECTION `.text`:CODE:NOROOT(2)
        SECTION_TYPE SHT_PROGBITS, 0
        DATA
??DataTable6_9:
        DC8      "dir"

        SECTION `.text`:CODE:NOROOT(2)
        SECTION_TYPE SHT_PROGBITS, 0
        DATA
??DataTable6_10:
        DC8      "g",0x0,0x0

        SECTION `.text`:CODE:NOROOT(2)
        SECTION_TYPE SHT_PROGBITS, 0
        DATA
??DataTable6_11:
        DC8      "v",0x0,0x0

        SECTION `.text`:CODE:NOROOT(2)
        SECTION_TYPE SHT_PROGBITS, 0
        DATA
??DataTable6_12:
        DC8      "aus"

        SECTION `.text`:CODE:NOROOT(2)
        SECTION_TYPE SHT_PROGBITS, 0
        DATA
??DataTable6_13:
        DC8      0x72, 0x73, 0x00, 0x00
//  335 
//  336 /*===============================================================
//  337 	@brief      陀螺仪矫正测试
//  338 ==================================================================*/

        SECTION `.text`:CODE:NOROOT(1)
        THUMB
//  339 void MPU6050_Test()
//  340 {
MPU6050_Test:
        PUSH     {R7,LR}
//  341     oled_print_short(20,0,(int16)(10*gf_yaw_velocity));
        LDR.W    R0,??DataTable10_22
        LDR      R1,[R0, #+0]
        LDR.W    R0,??DataTable10_23  ;; 0x41200000
        BL       __aeabi_fmul
        BL       __aeabi_f2iz
        MOVS     R2,R0
        SXTH     R2,R2            ;; SignExt  R2,R2,#+16,#+16
        MOVS     R1,#+0
        MOVS     R0,#+20
        BL       oled_print_short
//  342     oled_print_short(20,1,(int16)(gf_yaw_angle));
        LDR.W    R0,??DataTable10_21
        LDR      R0,[R0, #+0]
        BL       __aeabi_f2iz
        MOVS     R2,R0
        SXTH     R2,R2            ;; SignExt  R2,R2,#+16,#+16
        MOVS     R1,#+1
        MOVS     R0,#+20
        BL       oled_print_short
//  343     oled_print_short(20,2,(int16)(10*gf_gyro_bias_z));
        LDR.W    R0,??DataTable10_30
        LDR      R1,[R0, #+0]
        LDR.W    R0,??DataTable10_23  ;; 0x41200000
        BL       __aeabi_fmul
        BL       __aeabi_f2iz
        MOVS     R2,R0
        SXTH     R2,R2            ;; SignExt  R2,R2,#+16,#+16
        MOVS     R1,#+2
        MOVS     R0,#+20
        BL       oled_print_short
//  344     oled_print_short(20,3,(int16)(10*gf_pitch_velocity));
        LDR.W    R0,??DataTable10_31
        LDR      R1,[R0, #+0]
        LDR.W    R0,??DataTable10_23  ;; 0x41200000
        BL       __aeabi_fmul
        BL       __aeabi_f2iz
        MOVS     R2,R0
        SXTH     R2,R2            ;; SignExt  R2,R2,#+16,#+16
        MOVS     R1,#+3
        MOVS     R0,#+20
        BL       oled_print_short
//  345     oled_print_short(20,4,(int16)(gf_pitch_angle));
        LDR.W    R0,??DataTable10_32
        LDR      R0,[R0, #+0]
        BL       __aeabi_f2iz
        MOVS     R2,R0
        SXTH     R2,R2            ;; SignExt  R2,R2,#+16,#+16
        MOVS     R1,#+4
        MOVS     R0,#+20
        BL       oled_print_short
//  346     oled_print_short(20,5,(int16)(10*gf_roll_velocity));
        LDR.W    R0,??DataTable10_33
        LDR      R1,[R0, #+0]
        LDR.W    R0,??DataTable10_23  ;; 0x41200000
        BL       __aeabi_fmul
        BL       __aeabi_f2iz
        MOVS     R2,R0
        SXTH     R2,R2            ;; SignExt  R2,R2,#+16,#+16
        MOVS     R1,#+5
        MOVS     R0,#+20
        BL       oled_print_short
//  347     oled_print_short(20,6,(int16)(gf_roll_angle));
        LDR.W    R0,??DataTable10_34
        LDR      R0,[R0, #+0]
        BL       __aeabi_f2iz
        MOVS     R2,R0
        SXTH     R2,R2            ;; SignExt  R2,R2,#+16,#+16
        MOVS     R1,#+6
        MOVS     R0,#+20
        BL       oled_print_short
//  348 
//  349     
//  350     oled_print_short(85,0,gl_car_error);
        LDR.W    R0,??DataTable9_22
        LDR      R2,[R0, #+0]
        SXTH     R2,R2            ;; SignExt  R2,R2,#+16,#+16
        MOVS     R1,#+0
        MOVS     R0,#+85
        BL       oled_print_short
//  351     oled_print_short(85,1,gl_pwm_output);
        LDR.W    R0,??DataTable9_23
        LDR      R2,[R0, #+0]
        SXTH     R2,R2            ;; SignExt  R2,R2,#+16,#+16
        MOVS     R1,#+1
        MOVS     R0,#+85
        BL       oled_print_short
//  352     oled_print_short(85,2,gl_car_speed);
        LDR.N    R0,??DataTable7_17
        LDR      R2,[R0, #+0]
        SXTH     R2,R2            ;; SignExt  R2,R2,#+16,#+16
        MOVS     R1,#+2
        MOVS     R0,#+85
        BL       oled_print_short
//  353     oled_print_short(85,3,gl_car_speed_set);
        LDR.W    R0,??DataTable9_24
        LDR      R2,[R0, #+0]
        SXTH     R2,R2            ;; SignExt  R2,R2,#+16,#+16
        MOVS     R1,#+3
        MOVS     R0,#+85
        BL       oled_print_short
//  354     oled_print_short(85,4,gl_time_infrared);
        LDR.W    R0,??DataTable10_35
        LDR      R0,[R0, #+0]
        MOVS     R2,R0
        SXTH     R2,R2            ;; SignExt  R2,R2,#+16,#+16
        MOVS     R1,#+4
        MOVS     R0,#+85
        BL       oled_print_short
//  355     
//  356     oled_display_6x8str(1,0,"yv");
        ADR.N    R2,??DataTable7_2  ;; 0x79, 0x76, 0x00, 0x00
        MOVS     R1,#+0
        MOVS     R0,#+1
        BL       oled_display_6x8str
//  357     oled_display_6x8str(1,1,"ya");
        ADR.N    R2,??DataTable7_3  ;; 0x79, 0x61, 0x00, 0x00
        MOVS     R1,#+1
        MOVS     R0,#+1
        BL       oled_display_6x8str
//  358     oled_display_6x8str(1,2,"gzb");
        ADR.N    R2,??DataTable7_4  ;; "gzb"
        MOVS     R1,#+2
        MOVS     R0,#+1
        BL       oled_display_6x8str
//  359     oled_display_6x8str(1,3,"pv");
        ADR.N    R2,??DataTable7_5  ;; 0x70, 0x76, 0x00, 0x00
        MOVS     R1,#+3
        MOVS     R0,#+1
        BL       oled_display_6x8str
//  360     oled_display_6x8str(1,4,"pa");
        ADR.N    R2,??DataTable7_6  ;; 0x70, 0x61, 0x00, 0x00
        MOVS     R1,#+4
        MOVS     R0,#+1
        BL       oled_display_6x8str
//  361     oled_display_6x8str(1,5,"rv");
        ADR.N    R2,??DataTable7_7  ;; 0x72, 0x76, 0x00, 0x00
        MOVS     R1,#+5
        MOVS     R0,#+1
        BL       oled_display_6x8str
//  362     oled_display_6x8str(1,6,"ra");
        ADR.N    R2,??DataTable7_8  ;; 0x72, 0x61, 0x00, 0x00
        MOVS     R1,#+6
        MOVS     R0,#+1
        BL       oled_display_6x8str
//  363     
//  364     oled_display_6x8str(70,0,"er");
        ADR.N    R2,??DataTable7_9  ;; 0x65, 0x72, 0x00, 0x00
        MOVS     R1,#+0
        MOVS     R0,#+70
        BL       oled_display_6x8str
//  365     oled_display_6x8str(70,1,"pw");
        ADR.N    R2,??DataTable7_10  ;; 0x70, 0x77, 0x00, 0x00
        MOVS     R1,#+1
        MOVS     R0,#+70
        BL       oled_display_6x8str
//  366     oled_display_6x8str(70,2,"sp");
        ADR.N    R2,??DataTable7_1  ;; 0x73, 0x70, 0x00, 0x00
        MOVS     R1,#+2
        MOVS     R0,#+70
        BL       oled_display_6x8str
//  367     oled_display_6x8str(70,3,"st");
        ADR.N    R2,??DataTable7_11  ;; 0x73, 0x74, 0x00, 0x00
        MOVS     R1,#+3
        MOVS     R0,#+70
        BL       oled_display_6x8str
//  368     oled_display_6x8str(70,4,"te");
        ADR.N    R2,??DataTable8  ;; 0x74, 0x65, 0x00, 0x00
        MOVS     R1,#+4
        MOVS     R0,#+70
        BL       oled_display_6x8str
//  369     
//  370     VisualScope_Send(SCOPE_DATA_MODE);//待测试蓝牙
        MOVS     R0,#+0
        BL       VisualScope_Send
//  371 }
        POP      {R0,PC}          ;; return

        SECTION `.text`:CODE:NOROOT(2)
        SECTION_TYPE SHT_PROGBITS, 0
        DATA
??DataTable7:
        DC8      0x64, 0x73, 0x00, 0x00

        SECTION `.text`:CODE:NOROOT(2)
        SECTION_TYPE SHT_PROGBITS, 0
        DATA
??DataTable7_1:
        DC8      0x73, 0x70, 0x00, 0x00

        SECTION `.text`:CODE:NOROOT(2)
        SECTION_TYPE SHT_PROGBITS, 0
        DATA
??DataTable7_2:
        DC8      0x79, 0x76, 0x00, 0x00

        SECTION `.text`:CODE:NOROOT(2)
        SECTION_TYPE SHT_PROGBITS, 0
        DATA
??DataTable7_3:
        DC8      0x79, 0x61, 0x00, 0x00

        SECTION `.text`:CODE:NOROOT(2)
        SECTION_TYPE SHT_PROGBITS, 0
        DATA
??DataTable7_4:
        DC8      "gzb"

        SECTION `.text`:CODE:NOROOT(2)
        SECTION_TYPE SHT_PROGBITS, 0
        DATA
??DataTable7_5:
        DC8      0x70, 0x76, 0x00, 0x00

        SECTION `.text`:CODE:NOROOT(2)
        SECTION_TYPE SHT_PROGBITS, 0
        DATA
??DataTable7_6:
        DC8      0x70, 0x61, 0x00, 0x00

        SECTION `.text`:CODE:NOROOT(2)
        SECTION_TYPE SHT_PROGBITS, 0
        DATA
??DataTable7_7:
        DC8      0x72, 0x76, 0x00, 0x00

        SECTION `.text`:CODE:NOROOT(2)
        SECTION_TYPE SHT_PROGBITS, 0
        DATA
??DataTable7_8:
        DC8      0x72, 0x61, 0x00, 0x00

        SECTION `.text`:CODE:NOROOT(2)
        SECTION_TYPE SHT_PROGBITS, 0
        DATA
??DataTable7_9:
        DC8      0x65, 0x72, 0x00, 0x00

        SECTION `.text`:CODE:NOROOT(2)
        SECTION_TYPE SHT_PROGBITS, 0
        DATA
??DataTable7_10:
        DC8      0x70, 0x77, 0x00, 0x00

        SECTION `.text`:CODE:NOROOT(2)
        SECTION_TYPE SHT_PROGBITS, 0
        DATA
??DataTable7_11:
        DC8      0x73, 0x74, 0x00, 0x00

        SECTION `.text`:CODE:NOROOT(2)
        SECTION_TYPE SHT_PROGBITS, 0
        DATA
??DataTable7_12:
        DC32     ?_0

        SECTION `.text`:CODE:NOROOT(2)
        SECTION_TYPE SHT_PROGBITS, 0
        DATA
??DataTable7_13:
        DC32     ?_1

        SECTION `.text`:CODE:NOROOT(2)
        SECTION_TYPE SHT_PROGBITS, 0
        DATA
??DataTable7_14:
        DC32     ?_4

        SECTION `.text`:CODE:NOROOT(2)
        SECTION_TYPE SHT_PROGBITS, 0
        DATA
??DataTable7_15:
        DC32     ?_5

        SECTION `.text`:CODE:NOROOT(2)
        SECTION_TYPE SHT_PROGBITS, 0
        DATA
??DataTable7_16:
        DC32     ?_6

        SECTION `.text`:CODE:NOROOT(2)
        SECTION_TYPE SHT_PROGBITS, 0
        DATA
??DataTable7_17:
        DC32     gl_car_speed

        SECTION `.text`:CODE:NOROOT(2)
        SECTION_TYPE SHT_PROGBITS, 0
        DATA
??DataTable7_18:
        DC32     gl_car_running_distance

        SECTION `.text`:CODE:NOROOT(2)
        SECTION_TYPE SHT_PROGBITS, 0
        DATA
??DataTable7_19:
        DC32     ?_8

        SECTION `.text`:CODE:NOROOT(2)
        SECTION_TYPE SHT_PROGBITS, 0
        DATA
??DataTable7_20:
        DC32     ?_9

        SECTION `.text`:CODE:NOROOT(2)
        SECTION_TYPE SHT_PROGBITS, 0
        DATA
??DataTable7_21:
        DC32     ?_10

        SECTION `.text`:CODE:NOROOT(2)
        SECTION_TYPE SHT_PROGBITS, 0
        DATA
??DataTable7_22:
        DC32     gl_left_encoder_value

        SECTION `.text`:CODE:NOROOT(2)
        SECTION_TYPE SHT_PROGBITS, 0
        DATA
??DataTable7_23:
        DC32     gf_visual_scope_data
//  372 
//  373 /*===============================================================
//  374 	@brief      路障测试
//  375 ==================================================================*/

        SECTION `.text`:CODE:NOROOT(1)
        THUMB
//  376 void Obstacle_Test()
//  377 {
Obstacle_Test:
        PUSH     {R7,LR}
//  378     oled_print_short(20,0,gi_infrared_AD_distance);
        LDR.W    R0,??DataTable10_36
        LDRSH    R2,[R0, #+0]
        MOVS     R1,#+0
        MOVS     R0,#+20
        BL       oled_print_short
//  379     oled_print_short(20,1,guc_infrared_ranging_flag);
        LDR.W    R0,??DataTable10_37
        LDRB     R0,[R0, #+0]
        MOVS     R2,R0
        SXTH     R2,R2            ;; SignExt  R2,R2,#+16,#+16
        MOVS     R1,#+1
        MOVS     R0,#+20
        BL       oled_print_short
//  380     oled_print_short(20,2,guc_obstacle_state);
        LDR.W    R0,??DataTable10_38
        LDRB     R0,[R0, #+0]
        MOVS     R2,R0
        SXTH     R2,R2            ;; SignExt  R2,R2,#+16,#+16
        MOVS     R1,#+2
        MOVS     R0,#+20
        BL       oled_print_short
//  381     oled_print_short(20,3,(int16)(gf_camber_angle));
        LDR.W    R0,??DataTable10_39
        LDR      R0,[R0, #+0]
        BL       __aeabi_f2iz
        MOVS     R2,R0
        SXTH     R2,R2            ;; SignExt  R2,R2,#+16,#+16
        MOVS     R1,#+3
        MOVS     R0,#+20
        BL       oled_print_short
//  382     oled_print_short(20,4,(int16)(10*gf_yaw_velocity));
        LDR.W    R0,??DataTable10_22
        LDR      R0,[R0, #+0]
        LDR.W    R1,??DataTable10_23  ;; 0x41200000
        BL       __aeabi_fmul
        BL       __aeabi_f2iz
        MOVS     R2,R0
        SXTH     R2,R2            ;; SignExt  R2,R2,#+16,#+16
        MOVS     R1,#+4
        MOVS     R0,#+20
        BL       oled_print_short
//  383     oled_print_short(20,5,guc_obstacle_flag);
        LDR.W    R0,??DataTable10_40
        LDRB     R0,[R0, #+0]
        MOVS     R2,R0
        SXTH     R2,R2            ;; SignExt  R2,R2,#+16,#+16
        MOVS     R1,#+5
        MOVS     R0,#+20
        BL       oled_print_short
//  384     
//  385     if(guc_avoidance_direction_flag == LEFT)
        LDR.W    R0,??DataTable10_41
        LDRB     R0,[R0, #+0]
        CMP      R0,#+2
        BNE.N    ??Obstacle_Test_0
//  386     {
//  387         oled_display_6x8str(20,6,"left");
        LDR.W    R2,??DataTable10_42
        MOVS     R1,#+6
        MOVS     R0,#+20
        BL       oled_display_6x8str
        B.N      ??Obstacle_Test_1
//  388     }
//  389     else if(guc_avoidance_direction_flag == RIGHT)
??Obstacle_Test_0:
        LDR.W    R0,??DataTable10_41
        LDRB     R0,[R0, #+0]
        CMP      R0,#+1
        BNE.N    ??Obstacle_Test_2
//  390     {
//  391         oled_display_6x8str(20,6,"right");
        LDR.W    R2,??DataTable10_43
        MOVS     R1,#+6
        MOVS     R0,#+20
        BL       oled_display_6x8str
        B.N      ??Obstacle_Test_1
//  392     }
//  393     else
//  394     {
//  395         oled_display_6x8str(20,6," no ");
??Obstacle_Test_2:
        LDR.W    R2,??DataTable10_20
        MOVS     R1,#+6
        MOVS     R0,#+20
        BL       oled_display_6x8str
//  396     }
//  397         
//  398     
//  399     oled_print_short(20,7,guc_obstacle_complete_flag);
??Obstacle_Test_1:
        LDR.W    R0,??DataTable10_44
        LDRB     R0,[R0, #+0]
        MOVS     R2,R0
        SXTH     R2,R2            ;; SignExt  R2,R2,#+16,#+16
        MOVS     R1,#+7
        MOVS     R0,#+20
        BL       oled_print_short
//  400     
//  401     oled_print_short(85,0,gi_infrared_2nd_AD_distance);
        LDR.W    R0,??DataTable10_45
        LDRSH    R2,[R0, #+0]
        MOVS     R1,#+0
        MOVS     R0,#+85
        BL       oled_print_short
//  402     
//  403     if(guc_slope_complete_flag == ON)
        LDR.W    R0,??DataTable10_46
        LDRB     R0,[R0, #+0]
        CMP      R0,#+1
        BNE.N    ??Obstacle_Test_3
//  404     {
//  405         oled_display_6x8str(85,1,"ok");
        ADR.N    R2,??DataTable9  ;; 0x6F, 0x6B, 0x00, 0x00
        MOVS     R1,#+1
        MOVS     R0,#+85
        BL       oled_display_6x8str
        B.N      ??Obstacle_Test_4
//  406     }
//  407     else if(guc_slope_complete_flag == OFF)
??Obstacle_Test_3:
        LDR.W    R0,??DataTable10_46
        LDRB     R0,[R0, #+0]
        CMP      R0,#+0
        BNE.N    ??Obstacle_Test_5
//  408     {
//  409         oled_display_6x8str(85,1,"no");
        ADR.N    R2,??DataTable9_1  ;; 0x6E, 0x6F, 0x00, 0x00
        MOVS     R1,#+1
        MOVS     R0,#+85
        BL       oled_display_6x8str
        B.N      ??Obstacle_Test_4
//  410     }
//  411     else
//  412     {
//  413         oled_display_6x8str(85,1,"error");
??Obstacle_Test_5:
        LDR.W    R2,??DataTable10_47
        MOVS     R1,#+1
        MOVS     R0,#+85
        BL       oled_display_6x8str
//  414     }
//  415         
//  416     if(guc_first_obstacle_slope_flag == SLOPE_FIRST)
??Obstacle_Test_4:
        LDR.W    R0,??DataTable10_48
        LDRB     R0,[R0, #+0]
        CMP      R0,#+2
        BNE.N    ??Obstacle_Test_6
//  417     {
//  418         oled_display_6x8str(85,2,"s_first");
        LDR.W    R2,??DataTable10_49
        MOVS     R1,#+2
        MOVS     R0,#+85
        BL       oled_display_6x8str
        B.N      ??Obstacle_Test_7
//  419     }
//  420     else if(guc_first_obstacle_slope_flag == OBSTACLE_FIRST)
??Obstacle_Test_6:
        LDR.W    R0,??DataTable10_48
        LDRB     R0,[R0, #+0]
        CMP      R0,#+1
        BNE.N    ??Obstacle_Test_8
//  421     {
//  422         oled_display_6x8str(85,2,"o_first");
        LDR.W    R2,??DataTable10_50
        MOVS     R1,#+2
        MOVS     R0,#+85
        BL       oled_display_6x8str
        B.N      ??Obstacle_Test_7
//  423     }
//  424     else
//  425     {
//  426         oled_display_6x8str(85,2,"error");
??Obstacle_Test_8:
        LDR.W    R2,??DataTable10_47
        MOVS     R1,#+2
        MOVS     R0,#+85
        BL       oled_display_6x8str
//  427     }
//  428     
//  429     oled_print_short(85,3,(int16)gf_obstacle_error);
??Obstacle_Test_7:
        LDR.W    R0,??DataTable10_51
        LDR      R0,[R0, #+0]
        BL       __aeabi_f2iz
        MOVS     R2,R0
        SXTH     R2,R2            ;; SignExt  R2,R2,#+16,#+16
        MOVS     R1,#+3
        MOVS     R0,#+85
        BL       oled_print_short
//  430     oled_print_short(85,4,gi_inductor_value[M_BACK]);
        LDR.W    R0,??DataTable10_52
        LDRSH    R2,[R0, #+4]
        MOVS     R1,#+4
        MOVS     R0,#+85
        BL       oled_print_short
//  431     
//  432     if(guc_obstacle_state == 1)
        LDR.W    R0,??DataTable10_38
        LDRB     R0,[R0, #+0]
        CMP      R0,#+1
        BNE.N    ??Obstacle_Test_9
//  433     {
//  434         oled_print_short(85,5,gi_aviodence_angle);
        LDR.W    R0,??DataTable10_53
        LDRSH    R2,[R0, #+0]
        MOVS     R1,#+5
        MOVS     R0,#+85
        BL       oled_print_short
        B.N      ??Obstacle_Test_10
//  435     }
//  436     else if(guc_obstacle_state == 2)
??Obstacle_Test_9:
        LDR.W    R0,??DataTable10_38
        LDRB     R0,[R0, #+0]
        CMP      R0,#+2
        BNE.N    ??Obstacle_Test_11
//  437     {
//  438         oled_print_short(85,5,gi_regression_angle);
        LDR.W    R0,??DataTable10_54
        LDRSH    R2,[R0, #+0]
        MOVS     R1,#+5
        MOVS     R0,#+85
        BL       oled_print_short
        B.N      ??Obstacle_Test_10
//  439     }
//  440     else
//  441     {
//  442         oled_print_short(85,5,0);
??Obstacle_Test_11:
        MOVS     R2,#+0
        MOVS     R1,#+5
        MOVS     R0,#+85
        BL       oled_print_short
//  443     }
//  444     
//  445     oled_print_short(85,6,gl_obstacle_distance_record);
??Obstacle_Test_10:
        LDR.W    R0,??DataTable10_55
        LDR      R2,[R0, #+0]
        SXTH     R2,R2            ;; SignExt  R2,R2,#+16,#+16
        MOVS     R1,#+6
        MOVS     R0,#+85
        BL       oled_print_short
//  446     oled_print_short(85,7,gl_car_running_distance);
        LDR.W    R0,??DataTable10_56
        LDR      R2,[R0, #+0]
        SXTH     R2,R2            ;; SignExt  R2,R2,#+16,#+16
        MOVS     R1,#+7
        MOVS     R0,#+85
        BL       oled_print_short
//  447     
//  448     oled_display_6x8str(1,0,"IU");
        ADR.N    R2,??DataTable9_3  ;; 0x49, 0x55, 0x00, 0x00
        MOVS     R1,#+0
        MOVS     R0,#+1
        BL       oled_display_6x8str
//  449     oled_display_6x8str(1,1,"cf");
        ADR.N    R2,??DataTable9_4  ;; 0x63, 0x66, 0x00, 0x00
        MOVS     R1,#+1
        MOVS     R0,#+1
        BL       oled_display_6x8str
//  450     oled_display_6x8str(1,2,"os");
        ADR.N    R2,??DataTable9_5  ;; 0x6F, 0x73, 0x00, 0x00
        MOVS     R1,#+2
        MOVS     R0,#+1
        BL       oled_display_6x8str
//  451     oled_display_6x8str(1,3,"ag");
        ADR.N    R2,??DataTable9_6  ;; 0x61, 0x67, 0x00, 0x00
        MOVS     R1,#+3
        MOVS     R0,#+1
        BL       oled_display_6x8str
//  452     oled_display_6x8str(1,4,"yv");
        ADR.N    R2,??DataTable9_7  ;; 0x79, 0x76, 0x00, 0x00
        MOVS     R1,#+4
        MOVS     R0,#+1
        BL       oled_display_6x8str
//  453     oled_display_6x8str(1,5,"of");
        ADR.N    R2,??DataTable9_8  ;; 0x6F, 0x66, 0x00, 0x00
        MOVS     R1,#+5
        MOVS     R0,#+1
        BL       oled_display_6x8str
//  454     oled_display_6x8str(1,6,"dr");
        ADR.N    R2,??DataTable9_9  ;; 0x64, 0x72, 0x00, 0x00
        MOVS     R1,#+6
        MOVS     R0,#+1
        BL       oled_display_6x8str
//  455     oled_display_6x8str(1,7,"oc");
        ADR.N    R2,??DataTable9_10  ;; 0x6F, 0x63, 0x00, 0x00
        MOVS     R1,#+7
        MOVS     R0,#+1
        BL       oled_display_6x8str
//  456     
//  457     oled_display_6x8str(70,0,"ID");
        ADR.N    R2,??DataTable9_11  ;; 0x49, 0x44, 0x00, 0x00
        MOVS     R1,#+0
        MOVS     R0,#+70
        BL       oled_display_6x8str
//  458     oled_display_6x8str(70,1,"sc");
        ADR.N    R2,??DataTable9_13  ;; 0x73, 0x63, 0x00, 0x00
        MOVS     R1,#+1
        MOVS     R0,#+70
        BL       oled_display_6x8str
//  459     oled_display_6x8str(70,2,"st");
        ADR.N    R2,??DataTable9_14  ;; 0x73, 0x74, 0x00, 0x00
        MOVS     R1,#+2
        MOVS     R0,#+70
        BL       oled_display_6x8str
//  460     oled_display_6x8str(70,3,"ce");
        ADR.N    R2,??DataTable9_15  ;; 0x63, 0x65, 0x00, 0x00
        MOVS     R1,#+3
        MOVS     R0,#+70
        BL       oled_display_6x8str
//  461     oled_display_6x8str(70,4,"m1");
        ADR.N    R2,??DataTable9_16  ;; 0x6D, 0x31, 0x00, 0x00
        MOVS     R1,#+4
        MOVS     R0,#+70
        BL       oled_display_6x8str
//  462     
//  463     if(guc_obstacle_state == 1)
        LDR.N    R0,??DataTable10_38
        LDRB     R0,[R0, #+0]
        CMP      R0,#+1
        BNE.N    ??Obstacle_Test_12
//  464     {
//  465         oled_display_6x8str(70,5,"s1");
        ADR.N    R2,??DataTable9_17  ;; 0x73, 0x31, 0x00, 0x00
        MOVS     R1,#+5
        MOVS     R0,#+70
        BL       oled_display_6x8str
        B.N      ??Obstacle_Test_13
//  466     }
//  467     else if(guc_obstacle_state == 2)
??Obstacle_Test_12:
        LDR.N    R0,??DataTable10_38
        LDRB     R0,[R0, #+0]
        CMP      R0,#+2
        BNE.N    ??Obstacle_Test_14
//  468     {
//  469         oled_display_6x8str(70,5,"s2");
        ADR.N    R2,??DataTable9_18  ;; 0x73, 0x32, 0x00, 0x00
        MOVS     R1,#+5
        MOVS     R0,#+70
        BL       oled_display_6x8str
        B.N      ??Obstacle_Test_13
//  470     }
//  471     else
//  472     {
//  473         oled_display_6x8str(70,5,"no");
??Obstacle_Test_14:
        ADR.N    R2,??DataTable9_1  ;; 0x6E, 0x6F, 0x00, 0x00
        MOVS     R1,#+5
        MOVS     R0,#+70
        BL       oled_display_6x8str
//  474     }
//  475     
//  476     oled_display_6x8str(70,6,"rs");
??Obstacle_Test_13:
        ADR.N    R2,??DataTable9_19  ;; 0x72, 0x73, 0x00, 0x00
        MOVS     R1,#+6
        MOVS     R0,#+70
        BL       oled_display_6x8str
//  477     oled_display_6x8str(70,7,"ds");
        ADR.N    R2,??DataTable10  ;; 0x64, 0x73, 0x00, 0x00
        MOVS     R1,#+7
        MOVS     R0,#+70
        BL       oled_display_6x8str
//  478     
//  479     VisualScope_Send(SCOPE_DATA_MODE);//待测试蓝牙
        MOVS     R0,#+0
        BL       VisualScope_Send
//  480 }
        POP      {R0,PC}          ;; return

        SECTION `.text`:CODE:NOROOT(2)
        SECTION_TYPE SHT_PROGBITS, 0
        DATA
??DataTable8:
        DC8      0x74, 0x65, 0x00, 0x00

        SECTION `.text`:CODE:NOROOT(2)
        SECTION_TYPE SHT_PROGBITS, 0
        DATA
??DataTable8_1:
        DC32     gi_inductor_x_offset
//  481 
//  482 /*===============================================================
//  483 	@brief      红外信号测试
//  484 	@function   显示红外数值   
//  485 ==================================================================*/

        SECTION `.text`:CODE:NOROOT(1)
        THUMB
//  486 void Test_Infrared()
//  487 { 
Test_Infrared:
        PUSH     {R7,LR}
//  488   while(1)
//  489   {
//  490     gl_time_infrared = get_infrared_command();
??Test_Infrared_0:
        BL       get_infrared_command
        LDR.N    R1,??DataTable10_35
        STR      R0,[R1, #+0]
//  491     oled_print_short(1,1,(int16)gl_time_infrared);    
        LDR.N    R0,??DataTable10_35
        LDR      R0,[R0, #+0]
        MOVS     R2,R0
        SXTH     R2,R2            ;; SignExt  R2,R2,#+16,#+16
        MOVS     R1,#+1
        MOVS     R0,#+1
        BL       oled_print_short
        B.N      ??Test_Infrared_0
//  492   }
//  493 }

        SECTION `.text`:CODE:NOROOT(2)
        SECTION_TYPE SHT_PROGBITS, 0
        DATA
??DataTable9:
        DC8      0x6F, 0x6B, 0x00, 0x00

        SECTION `.text`:CODE:NOROOT(2)
        SECTION_TYPE SHT_PROGBITS, 0
        DATA
??DataTable9_1:
        DC8      0x6E, 0x6F, 0x00, 0x00

        SECTION `.text`:CODE:NOROOT(2)
        SECTION_TYPE SHT_PROGBITS, 0
        DATA
??DataTable9_2:
        DC32     guc_switch_pin_value

        SECTION `.text`:CODE:NOROOT(2)
        SECTION_TYPE SHT_PROGBITS, 0
        DATA
??DataTable9_3:
        DC8      0x49, 0x55, 0x00, 0x00

        SECTION `.text`:CODE:NOROOT(2)
        SECTION_TYPE SHT_PROGBITS, 0
        DATA
??DataTable9_4:
        DC8      0x63, 0x66, 0x00, 0x00

        SECTION `.text`:CODE:NOROOT(2)
        SECTION_TYPE SHT_PROGBITS, 0
        DATA
??DataTable9_5:
        DC8      0x6F, 0x73, 0x00, 0x00

        SECTION `.text`:CODE:NOROOT(2)
        SECTION_TYPE SHT_PROGBITS, 0
        DATA
??DataTable9_6:
        DC8      0x61, 0x67, 0x00, 0x00

        SECTION `.text`:CODE:NOROOT(2)
        SECTION_TYPE SHT_PROGBITS, 0
        DATA
??DataTable9_7:
        DC8      0x79, 0x76, 0x00, 0x00

        SECTION `.text`:CODE:NOROOT(2)
        SECTION_TYPE SHT_PROGBITS, 0
        DATA
??DataTable9_8:
        DC8      0x6F, 0x66, 0x00, 0x00

        SECTION `.text`:CODE:NOROOT(2)
        SECTION_TYPE SHT_PROGBITS, 0
        DATA
??DataTable9_9:
        DC8      0x64, 0x72, 0x00, 0x00

        SECTION `.text`:CODE:NOROOT(2)
        SECTION_TYPE SHT_PROGBITS, 0
        DATA
??DataTable9_10:
        DC8      0x6F, 0x63, 0x00, 0x00

        SECTION `.text`:CODE:NOROOT(2)
        SECTION_TYPE SHT_PROGBITS, 0
        DATA
??DataTable9_11:
        DC8      0x49, 0x44, 0x00, 0x00

        SECTION `.text`:CODE:NOROOT(2)
        SECTION_TYPE SHT_PROGBITS, 0
        DATA
??DataTable9_12:
        DC32     ?_2

        SECTION `.text`:CODE:NOROOT(2)
        SECTION_TYPE SHT_PROGBITS, 0
        DATA
??DataTable9_13:
        DC8      0x73, 0x63, 0x00, 0x00

        SECTION `.text`:CODE:NOROOT(2)
        SECTION_TYPE SHT_PROGBITS, 0
        DATA
??DataTable9_14:
        DC8      0x73, 0x74, 0x00, 0x00

        SECTION `.text`:CODE:NOROOT(2)
        SECTION_TYPE SHT_PROGBITS, 0
        DATA
??DataTable9_15:
        DC8      0x63, 0x65, 0x00, 0x00

        SECTION `.text`:CODE:NOROOT(2)
        SECTION_TYPE SHT_PROGBITS, 0
        DATA
??DataTable9_16:
        DC8      0x6D, 0x31, 0x00, 0x00

        SECTION `.text`:CODE:NOROOT(2)
        SECTION_TYPE SHT_PROGBITS, 0
        DATA
??DataTable9_17:
        DC8      0x73, 0x31, 0x00, 0x00

        SECTION `.text`:CODE:NOROOT(2)
        SECTION_TYPE SHT_PROGBITS, 0
        DATA
??DataTable9_18:
        DC8      0x73, 0x32, 0x00, 0x00

        SECTION `.text`:CODE:NOROOT(2)
        SECTION_TYPE SHT_PROGBITS, 0
        DATA
??DataTable9_19:
        DC8      0x72, 0x73, 0x00, 0x00

        SECTION `.text`:CODE:NOROOT(2)
        SECTION_TYPE SHT_PROGBITS, 0
        DATA
??DataTable9_20:
        DC32     guc_reed_state_value

        SECTION `.text`:CODE:NOROOT(2)
        SECTION_TYPE SHT_PROGBITS, 0
        DATA
??DataTable9_21:
        DC32     gl_direction_output

        SECTION `.text`:CODE:NOROOT(2)
        SECTION_TYPE SHT_PROGBITS, 0
        DATA
??DataTable9_22:
        DC32     gl_car_error

        SECTION `.text`:CODE:NOROOT(2)
        SECTION_TYPE SHT_PROGBITS, 0
        DATA
??DataTable9_23:
        DC32     gl_pwm_output

        SECTION `.text`:CODE:NOROOT(2)
        SECTION_TYPE SHT_PROGBITS, 0
        DATA
??DataTable9_24:
        DC32     gl_car_speed_set

        SECTION `.text`:CODE:NOROOT(2)
        SECTION_TYPE SHT_PROGBITS, 0
        DATA
??DataTable9_25:
        DC32     guc_distinction_flag

        SECTION `.text`:CODE:NOROOT(2)
        SECTION_TYPE SHT_PROGBITS, 0
        DATA
??DataTable9_26:
        DC32     ?_12

        SECTION `.text`:CODE:NOROOT(2)
        SECTION_TYPE SHT_PROGBITS, 0
        DATA
??DataTable9_27:
        DC32     ?_13

        SECTION `.text`:CODE:NOROOT(2)
        SECTION_TYPE SHT_PROGBITS, 0
        DATA
??DataTable9_28:
        DC32     ?_14

        SECTION `.text`:CODE:NOROOT(2)
        SECTION_TYPE SHT_PROGBITS, 0
        DATA
??DataTable9_29:
        DC32     ?_15

        SECTION `.text`:CODE:NOROOT(2)
        SECTION_TYPE SHT_PROGBITS, 0
        DATA
??DataTable9_30:
        DC32     ?_16

        SECTION `.text`:CODE:NOROOT(2)
        SECTION_TYPE SHT_PROGBITS, 0
        DATA
??DataTable9_31:
        DC32     guc_car_run_flag

        SECTION `.text`:CODE:NOROOT(2)
        SECTION_TYPE SHT_PROGBITS, 0
        DATA
??DataTable9_32:
        DC32     gf_angularspeed_rotate
//  494 
//  495 /*===============================================================
//  496 	@brief      坡道信号测试
//  497 ==================================================================*/

        SECTION `.text`:CODE:NOROOT(1)
        THUMB
//  498 void Slope_Test(vint16 inductor_value[])
//  499 {
Slope_Test:
        PUSH     {R3-R5,LR}
        MOVS     R4,R0
//  500     int8 i;
//  501 
//  502     for(i = NUM_INDUCTOR - 1; i >= 0; i--)
        MOVS     R5,#+4
        B.N      ??Slope_Test_0
//  503     {
//  504       oled_print_short(20,NUM_INDUCTOR - 1 - i,inductor_value[i]);
??Slope_Test_1:
        SXTB     R5,R5            ;; SignExt  R5,R5,#+24,#+24
        LDRSH    R2,[R4, R5, LSL #+1]
        RSBS     R1,R5,#+4
        UXTB     R1,R1            ;; ZeroExt  R1,R1,#+24,#+24
        MOVS     R0,#+20
        BL       oled_print_short
//  505       gf_visual_scope_data[i]=inductor_value[i]*10;
        SXTB     R5,R5            ;; SignExt  R5,R5,#+24,#+24
        LDRSH    R0,[R4, R5, LSL #+1]
        MOVS     R1,#+10
        SMULBB   R0,R0,R1
        BL       __aeabi_i2f
        LDR.N    R1,??DataTable10_57
        SXTB     R5,R5            ;; SignExt  R5,R5,#+24,#+24
        STR      R0,[R1, R5, LSL #+2]
//  506     }
        SUBS     R5,R5,#+1
??Slope_Test_0:
        SXTB     R5,R5            ;; SignExt  R5,R5,#+24,#+24
        CMP      R5,#+0
        BPL.N    ??Slope_Test_1
//  507     oled_print_short(20,5,gl_slope_distance_record);
        LDR.N    R0,??DataTable10_58
        LDR      R2,[R0, #+0]
        SXTH     R2,R2            ;; SignExt  R2,R2,#+16,#+16
        MOVS     R1,#+5
        MOVS     R0,#+20
        BL       oled_print_short
//  508     oled_print_short(20,6,gl_car_running_distance);
        LDR.N    R0,??DataTable10_56
        LDR      R2,[R0, #+0]
        SXTH     R2,R2            ;; SignExt  R2,R2,#+16,#+16
        MOVS     R1,#+6
        MOVS     R0,#+20
        BL       oled_print_short
//  509     oled_print_short(20,7,gl_car_error);
        LDR.N    R0,??DataTable10_59
        LDR      R2,[R0, #+0]
        SXTH     R2,R2            ;; SignExt  R2,R2,#+16,#+16
        MOVS     R1,#+7
        MOVS     R0,#+20
        BL       oled_print_short
//  510     
//  511     oled_print_short(85,0,guc_slope_state);
        LDR.N    R0,??DataTable10_60
        LDRB     R0,[R0, #+0]
        MOVS     R2,R0
        SXTH     R2,R2            ;; SignExt  R2,R2,#+16,#+16
        MOVS     R1,#+0
        MOVS     R0,#+85
        BL       oled_print_short
//  512     oled_print_short(85,1,gi_pitch_variance);
        LDR.N    R0,??DataTable10_61
        LDRSH    R2,[R0, #+0]
        MOVS     R1,#+1
        MOVS     R0,#+85
        BL       oled_print_short
//  513     oled_print_short(85,2,gl_car_speed);
        LDR.N    R0,??DataTable10_62
        LDR      R2,[R0, #+0]
        SXTH     R2,R2            ;; SignExt  R2,R2,#+16,#+16
        MOVS     R1,#+2
        MOVS     R0,#+85
        BL       oled_print_short
//  514     oled_print_short(85,3,(int16)(gf_pitch_angle));
        LDR.N    R0,??DataTable10_32
        LDR      R0,[R0, #+0]
        BL       __aeabi_f2iz
        MOVS     R2,R0
        SXTH     R2,R2            ;; SignExt  R2,R2,#+16,#+16
        MOVS     R1,#+3
        MOVS     R0,#+85
        BL       oled_print_short
//  515     oled_print_short(85,4,(int16)(gf_pitch_velocity));
        LDR.N    R0,??DataTable10_31
        LDR      R0,[R0, #+0]
        BL       __aeabi_f2iz
        MOVS     R2,R0
        SXTH     R2,R2            ;; SignExt  R2,R2,#+16,#+16
        MOVS     R1,#+4
        MOVS     R0,#+85
        BL       oled_print_short
//  516     oled_print_short(85,5,(int16)(gf_slope_start_angle));
        LDR.N    R0,??DataTable10_63
        LDR      R0,[R0, #+0]
        BL       __aeabi_f2iz
        MOVS     R2,R0
        SXTH     R2,R2            ;; SignExt  R2,R2,#+16,#+16
        MOVS     R1,#+5
        MOVS     R0,#+85
        BL       oled_print_short
//  517     oled_print_short(85,6,(int16)(gf_slope_picth_angle));
        LDR.N    R0,??DataTable10_64
        LDR      R0,[R0, #+0]
        BL       __aeabi_f2iz
        MOVS     R2,R0
        SXTH     R2,R2            ;; SignExt  R2,R2,#+16,#+16
        MOVS     R1,#+6
        MOVS     R0,#+85
        BL       oled_print_short
//  518     oled_print_short(85,7,guc_slope_pitch_flag);
        LDR.N    R0,??DataTable10_65
        LDRB     R0,[R0, #+0]
        MOVS     R2,R0
        SXTH     R2,R2            ;; SignExt  R2,R2,#+16,#+16
        MOVS     R1,#+7
        MOVS     R0,#+85
        BL       oled_print_short
//  519     
//  520     oled_display_6x8str(1,0,"y1");
        ADR.N    R2,??DataTable10_2  ;; 0x79, 0x31, 0x00, 0x00
        MOVS     R1,#+0
        MOVS     R0,#+1
        BL       oled_display_6x8str
//  521     oled_display_6x8str(1,1,"x1");
        ADR.N    R2,??DataTable10_3  ;; 0x78, 0x31, 0x00, 0x00
        MOVS     R1,#+1
        MOVS     R0,#+1
        BL       oled_display_6x8str
//  522     oled_display_6x8str(1,2,"m1");
        ADR.N    R2,??DataTable10_4  ;; 0x6D, 0x31, 0x00, 0x00
        MOVS     R1,#+2
        MOVS     R0,#+1
        BL       oled_display_6x8str
//  523     oled_display_6x8str(1,3,"x2");
        ADR.N    R2,??DataTable10_5  ;; 0x78, 0x32, 0x00, 0x00
        MOVS     R1,#+3
        MOVS     R0,#+1
        BL       oled_display_6x8str
//  524     oled_display_6x8str(1,4,"y2");
        ADR.N    R2,??DataTable10_6  ;; 0x79, 0x32, 0x00, 0x00
        MOVS     R1,#+4
        MOVS     R0,#+1
        BL       oled_display_6x8str
//  525     oled_display_6x8str(1,5,"rs");
        ADR.N    R2,??DataTable10_7  ;; 0x72, 0x73, 0x00, 0x00
        MOVS     R1,#+5
        MOVS     R0,#+1
        BL       oled_display_6x8str
//  526     oled_display_6x8str(1,6,"ds");
        ADR.N    R2,??DataTable10  ;; 0x64, 0x73, 0x00, 0x00
        MOVS     R1,#+6
        MOVS     R0,#+1
        BL       oled_display_6x8str
//  527     oled_display_6x8str(1,7,"er");
        ADR.N    R2,??DataTable10_8  ;; 0x65, 0x72, 0x00, 0x00
        MOVS     R1,#+7
        MOVS     R0,#+1
        BL       oled_display_6x8str
//  528     
//  529     oled_display_6x8str(65,0,"st");
        ADR.N    R2,??DataTable10_9  ;; 0x73, 0x74, 0x00, 0x00
        MOVS     R1,#+0
        MOVS     R0,#+65
        BL       oled_display_6x8str
//  530     oled_display_6x8str(65,1,"ps");
        ADR.N    R2,??DataTable10_10  ;; 0x70, 0x73, 0x00, 0x00
        MOVS     R1,#+1
        MOVS     R0,#+65
        BL       oled_display_6x8str
//  531     oled_display_6x8str(65,2,"spd");
        ADR.N    R2,??DataTable10_11  ;; "spd"
        MOVS     R1,#+2
        MOVS     R0,#+65
        BL       oled_display_6x8str
//  532     oled_display_6x8str(65,3,"pa");
        ADR.N    R2,??DataTable10_12  ;; 0x70, 0x61, 0x00, 0x00
        MOVS     R1,#+3
        MOVS     R0,#+65
        BL       oled_display_6x8str
//  533     oled_display_6x8str(65,4,"pv");
        ADR.N    R2,??DataTable10_13  ;; 0x70, 0x76, 0x00, 0x00
        MOVS     R1,#+4
        MOVS     R0,#+65
        BL       oled_display_6x8str
//  534     oled_display_6x8str(65,5,"ba");
        ADR.N    R2,??DataTable10_14  ;; 0x62, 0x61, 0x00, 0x00
        MOVS     R1,#+5
        MOVS     R0,#+65
        BL       oled_display_6x8str
//  535     oled_display_6x8str(65,6,"sa");
        ADR.N    R2,??DataTable10_15  ;; 0x73, 0x61, 0x00, 0x00
        MOVS     R1,#+6
        MOVS     R0,#+65
        BL       oled_display_6x8str
//  536     oled_display_6x8str(65,7,"if");
        ADR.N    R2,??DataTable10_16  ;; 0x69, 0x66, 0x00, 0x00
        MOVS     R1,#+7
        MOVS     R0,#+65
        BL       oled_display_6x8str
//  537     
//  538     VisualScope_Send(SCOPE_DATA_MODE);//待测试蓝牙
        MOVS     R0,#+0
        BL       VisualScope_Send
//  539 }
        POP      {R0,R4,R5,PC}    ;; return

        SECTION `.text`:CODE:NOROOT(2)
        SECTION_TYPE SHT_PROGBITS, 0
        DATA
??DataTable10:
        DC8      0x64, 0x73, 0x00, 0x00

        SECTION `.text`:CODE:NOROOT(2)
        SECTION_TYPE SHT_PROGBITS, 0
        DATA
??DataTable10_1:
        DC32     gl_right_encoder_value

        SECTION `.text`:CODE:NOROOT(2)
        SECTION_TYPE SHT_PROGBITS, 0
        DATA
??DataTable10_2:
        DC8      0x79, 0x31, 0x00, 0x00

        SECTION `.text`:CODE:NOROOT(2)
        SECTION_TYPE SHT_PROGBITS, 0
        DATA
??DataTable10_3:
        DC8      0x78, 0x31, 0x00, 0x00

        SECTION `.text`:CODE:NOROOT(2)
        SECTION_TYPE SHT_PROGBITS, 0
        DATA
??DataTable10_4:
        DC8      0x6D, 0x31, 0x00, 0x00

        SECTION `.text`:CODE:NOROOT(2)
        SECTION_TYPE SHT_PROGBITS, 0
        DATA
??DataTable10_5:
        DC8      0x78, 0x32, 0x00, 0x00

        SECTION `.text`:CODE:NOROOT(2)
        SECTION_TYPE SHT_PROGBITS, 0
        DATA
??DataTable10_6:
        DC8      0x79, 0x32, 0x00, 0x00

        SECTION `.text`:CODE:NOROOT(2)
        SECTION_TYPE SHT_PROGBITS, 0
        DATA
??DataTable10_7:
        DC8      0x72, 0x73, 0x00, 0x00

        SECTION `.text`:CODE:NOROOT(2)
        SECTION_TYPE SHT_PROGBITS, 0
        DATA
??DataTable10_8:
        DC8      0x65, 0x72, 0x00, 0x00

        SECTION `.text`:CODE:NOROOT(2)
        SECTION_TYPE SHT_PROGBITS, 0
        DATA
??DataTable10_9:
        DC8      0x73, 0x74, 0x00, 0x00

        SECTION `.text`:CODE:NOROOT(2)
        SECTION_TYPE SHT_PROGBITS, 0
        DATA
??DataTable10_10:
        DC8      0x70, 0x73, 0x00, 0x00

        SECTION `.text`:CODE:NOROOT(2)
        SECTION_TYPE SHT_PROGBITS, 0
        DATA
??DataTable10_11:
        DC8      "spd"

        SECTION `.text`:CODE:NOROOT(2)
        SECTION_TYPE SHT_PROGBITS, 0
        DATA
??DataTable10_12:
        DC8      0x70, 0x61, 0x00, 0x00

        SECTION `.text`:CODE:NOROOT(2)
        SECTION_TYPE SHT_PROGBITS, 0
        DATA
??DataTable10_13:
        DC8      0x70, 0x76, 0x00, 0x00

        SECTION `.text`:CODE:NOROOT(2)
        SECTION_TYPE SHT_PROGBITS, 0
        DATA
??DataTable10_14:
        DC8      0x62, 0x61, 0x00, 0x00

        SECTION `.text`:CODE:NOROOT(2)
        SECTION_TYPE SHT_PROGBITS, 0
        DATA
??DataTable10_15:
        DC8      0x73, 0x61, 0x00, 0x00

        SECTION `.text`:CODE:NOROOT(2)
        SECTION_TYPE SHT_PROGBITS, 0
        DATA
??DataTable10_16:
        DC8      0x69, 0x66, 0x00, 0x00

        SECTION `.text`:CODE:NOROOT(2)
        SECTION_TYPE SHT_PROGBITS, 0
        DATA
??DataTable10_17:
        DC32     gi_inductor_t_offset

        SECTION `.text`:CODE:NOROOT(2)
        SECTION_TYPE SHT_PROGBITS, 0
        DATA
??DataTable10_18:
        DC32     guc_annulus_state

        SECTION `.text`:CODE:NOROOT(2)
        SECTION_TYPE SHT_PROGBITS, 0
        DATA
??DataTable10_19:
        DC32     guc_annulus_direction

        SECTION `.text`:CODE:NOROOT(2)
        SECTION_TYPE SHT_PROGBITS, 0
        DATA
??DataTable10_20:
        DC32     ?_33

        SECTION `.text`:CODE:NOROOT(2)
        SECTION_TYPE SHT_PROGBITS, 0
        DATA
??DataTable10_21:
        DC32     gf_yaw_angle

        SECTION `.text`:CODE:NOROOT(2)
        SECTION_TYPE SHT_PROGBITS, 0
        DATA
??DataTable10_22:
        DC32     gf_yaw_velocity

        SECTION `.text`:CODE:NOROOT(2)
        SECTION_TYPE SHT_PROGBITS, 0
        DATA
??DataTable10_23:
        DC32     0x41200000

        SECTION `.text`:CODE:NOROOT(2)
        SECTION_TYPE SHT_PROGBITS, 0
        DATA
??DataTable10_24:
        DC32     gf_annulus_angle

        SECTION `.text`:CODE:NOROOT(2)
        SECTION_TYPE SHT_PROGBITS, 0
        DATA
??DataTable10_25:
        DC32     gl_annulus_distance_record

        SECTION `.text`:CODE:NOROOT(2)
        SECTION_TYPE SHT_PROGBITS, 0
        DATA
??DataTable10_26:
        DC32     gi_signal_gradient

        SECTION `.text`:CODE:NOROOT(2)
        SECTION_TYPE SHT_PROGBITS, 0
        DATA
??DataTable10_27:
        DC32     gi_x_signal_gradient

        SECTION `.text`:CODE:NOROOT(2)
        SECTION_TYPE SHT_PROGBITS, 0
        DATA
??DataTable10_28:
        DC32     gi_y_signal_gradient

        SECTION `.text`:CODE:NOROOT(2)
        SECTION_TYPE SHT_PROGBITS, 0
        DATA
??DataTable10_29:
        DC32     gi_inductor_adc

        SECTION `.text`:CODE:NOROOT(2)
        SECTION_TYPE SHT_PROGBITS, 0
        DATA
??DataTable10_30:
        DC32     gf_gyro_bias_z

        SECTION `.text`:CODE:NOROOT(2)
        SECTION_TYPE SHT_PROGBITS, 0
        DATA
??DataTable10_31:
        DC32     gf_pitch_velocity

        SECTION `.text`:CODE:NOROOT(2)
        SECTION_TYPE SHT_PROGBITS, 0
        DATA
??DataTable10_32:
        DC32     gf_pitch_angle

        SECTION `.text`:CODE:NOROOT(2)
        SECTION_TYPE SHT_PROGBITS, 0
        DATA
??DataTable10_33:
        DC32     gf_roll_velocity

        SECTION `.text`:CODE:NOROOT(2)
        SECTION_TYPE SHT_PROGBITS, 0
        DATA
??DataTable10_34:
        DC32     gf_roll_angle

        SECTION `.text`:CODE:NOROOT(2)
        SECTION_TYPE SHT_PROGBITS, 0
        DATA
??DataTable10_35:
        DC32     gl_time_infrared

        SECTION `.text`:CODE:NOROOT(2)
        SECTION_TYPE SHT_PROGBITS, 0
        DATA
??DataTable10_36:
        DC32     gi_infrared_AD_distance

        SECTION `.text`:CODE:NOROOT(2)
        SECTION_TYPE SHT_PROGBITS, 0
        DATA
??DataTable10_37:
        DC32     guc_infrared_ranging_flag

        SECTION `.text`:CODE:NOROOT(2)
        SECTION_TYPE SHT_PROGBITS, 0
        DATA
??DataTable10_38:
        DC32     guc_obstacle_state

        SECTION `.text`:CODE:NOROOT(2)
        SECTION_TYPE SHT_PROGBITS, 0
        DATA
??DataTable10_39:
        DC32     gf_camber_angle

        SECTION `.text`:CODE:NOROOT(2)
        SECTION_TYPE SHT_PROGBITS, 0
        DATA
??DataTable10_40:
        DC32     guc_obstacle_flag

        SECTION `.text`:CODE:NOROOT(2)
        SECTION_TYPE SHT_PROGBITS, 0
        DATA
??DataTable10_41:
        DC32     guc_avoidance_direction_flag

        SECTION `.text`:CODE:NOROOT(2)
        SECTION_TYPE SHT_PROGBITS, 0
        DATA
??DataTable10_42:
        DC32     ?_4

        SECTION `.text`:CODE:NOROOT(2)
        SECTION_TYPE SHT_PROGBITS, 0
        DATA
??DataTable10_43:
        DC32     ?_6

        SECTION `.text`:CODE:NOROOT(2)
        SECTION_TYPE SHT_PROGBITS, 0
        DATA
??DataTable10_44:
        DC32     guc_obstacle_complete_flag

        SECTION `.text`:CODE:NOROOT(2)
        SECTION_TYPE SHT_PROGBITS, 0
        DATA
??DataTable10_45:
        DC32     gi_infrared_2nd_AD_distance

        SECTION `.text`:CODE:NOROOT(2)
        SECTION_TYPE SHT_PROGBITS, 0
        DATA
??DataTable10_46:
        DC32     guc_slope_complete_flag

        SECTION `.text`:CODE:NOROOT(2)
        SECTION_TYPE SHT_PROGBITS, 0
        DATA
??DataTable10_47:
        DC32     ?_55

        SECTION `.text`:CODE:NOROOT(2)
        SECTION_TYPE SHT_PROGBITS, 0
        DATA
??DataTable10_48:
        DC32     guc_first_obstacle_slope_flag

        SECTION `.text`:CODE:NOROOT(2)
        SECTION_TYPE SHT_PROGBITS, 0
        DATA
??DataTable10_49:
        DC32     ?_56

        SECTION `.text`:CODE:NOROOT(2)
        SECTION_TYPE SHT_PROGBITS, 0
        DATA
??DataTable10_50:
        DC32     ?_57

        SECTION `.text`:CODE:NOROOT(2)
        SECTION_TYPE SHT_PROGBITS, 0
        DATA
??DataTable10_51:
        DC32     gf_obstacle_error

        SECTION `.text`:CODE:NOROOT(2)
        SECTION_TYPE SHT_PROGBITS, 0
        DATA
??DataTable10_52:
        DC32     gi_inductor_value

        SECTION `.text`:CODE:NOROOT(2)
        SECTION_TYPE SHT_PROGBITS, 0
        DATA
??DataTable10_53:
        DC32     gi_aviodence_angle

        SECTION `.text`:CODE:NOROOT(2)
        SECTION_TYPE SHT_PROGBITS, 0
        DATA
??DataTable10_54:
        DC32     gi_regression_angle

        SECTION `.text`:CODE:NOROOT(2)
        SECTION_TYPE SHT_PROGBITS, 0
        DATA
??DataTable10_55:
        DC32     gl_obstacle_distance_record

        SECTION `.text`:CODE:NOROOT(2)
        SECTION_TYPE SHT_PROGBITS, 0
        DATA
??DataTable10_56:
        DC32     gl_car_running_distance

        SECTION `.text`:CODE:NOROOT(2)
        SECTION_TYPE SHT_PROGBITS, 0
        DATA
??DataTable10_57:
        DC32     gf_visual_scope_data

        SECTION `.text`:CODE:NOROOT(2)
        SECTION_TYPE SHT_PROGBITS, 0
        DATA
??DataTable10_58:
        DC32     gl_slope_distance_record

        SECTION `.text`:CODE:NOROOT(2)
        SECTION_TYPE SHT_PROGBITS, 0
        DATA
??DataTable10_59:
        DC32     gl_car_error

        SECTION `.text`:CODE:NOROOT(2)
        SECTION_TYPE SHT_PROGBITS, 0
        DATA
??DataTable10_60:
        DC32     guc_slope_state

        SECTION `.text`:CODE:NOROOT(2)
        SECTION_TYPE SHT_PROGBITS, 0
        DATA
??DataTable10_61:
        DC32     gi_pitch_variance

        SECTION `.text`:CODE:NOROOT(2)
        SECTION_TYPE SHT_PROGBITS, 0
        DATA
??DataTable10_62:
        DC32     gl_car_speed

        SECTION `.text`:CODE:NOROOT(2)
        SECTION_TYPE SHT_PROGBITS, 0
        DATA
??DataTable10_63:
        DC32     gf_slope_start_angle

        SECTION `.text`:CODE:NOROOT(2)
        SECTION_TYPE SHT_PROGBITS, 0
        DATA
??DataTable10_64:
        DC32     gf_slope_picth_angle

        SECTION `.text`:CODE:NOROOT(2)
        SECTION_TYPE SHT_PROGBITS, 0
        DATA
??DataTable10_65:
        DC32     guc_slope_pitch_flag

        SECTION `.iar_vfe_header`:DATA:NOALLOC:NOROOT(2)
        SECTION_TYPE SHT_PROGBITS, 0
        DATA
        DC32 0

        SECTION __DLIB_PERTHREAD:DATA:REORDER:NOROOT(0)
        SECTION_TYPE SHT_PROGBITS, 0

        SECTION __DLIB_PERTHREAD_init:DATA:REORDER:NOROOT(0)
        SECTION_TYPE SHT_PROGBITS, 0

        SECTION `.rodata`:CONST:REORDER:NOROOT(2)
        DATA
?_0:
        DC8 "switch test"

        SECTION `.rodata`:CONST:REORDER:NOROOT(2)
        DATA
?_1:
        DC8 "led test"
        DC8 0, 0, 0

        SECTION `.rodata`:CONST:REORDER:NOROOT(2)
        DATA
?_2:
        DC8 "set switch to test led"
        DC8 0

        SECTION `.rodata`:CONST:REORDER:NOROOT(2)
        DATA
        DC8 "up"
        DC8 0

        SECTION `.rodata`:CONST:REORDER:NOROOT(2)
        DATA
?_4:
        DC8 "left"
        DC8 0, 0, 0

        SECTION `.rodata`:CONST:REORDER:NOROOT(2)
        DATA
?_5:
        DC8 "down"
        DC8 0, 0, 0

        SECTION `.rodata`:CONST:REORDER:NOROOT(2)
        DATA
?_6:
        DC8 "right"
        DC8 0, 0

        SECTION `.rodata`:CONST:REORDER:NOROOT(2)
        DATA
        DC8 "ok"
        DC8 0

        SECTION `.rodata`:CONST:REORDER:NOROOT(2)
        DATA
?_8:
        DC8 "speed"
        DC8 0, 0

        SECTION `.rodata`:CONST:REORDER:NOROOT(2)
        DATA
?_9:
        DC8 "distance"
        DC8 0, 0, 0

        SECTION `.rodata`:CONST:REORDER:NOROOT(2)
        DATA
?_10:
        DC8 "time"
        DC8 0, 0, 0

        SECTION `.rodata`:CONST:REORDER:NOROOT(2)
        DATA
        DC8 "pwm"

        SECTION `.rodata`:CONST:REORDER:NOROOT(2)
        DATA
?_12:
        DC8 "GENERAL"

        SECTION `.rodata`:CONST:REORDER:NOROOT(2)
        DATA
?_13:
        DC8 "CRUCIFIX"
        DC8 0, 0, 0

        SECTION `.rodata`:CONST:REORDER:NOROOT(2)
        DATA
?_14:
        DC8 "ANNULUS"

        SECTION `.rodata`:CONST:REORDER:NOROOT(2)
        DATA
?_15:
        DC8 "SLOPE"
        DC8 0, 0

        SECTION `.rodata`:CONST:REORDER:NOROOT(2)
        DATA
?_16:
        DC8 "OBSTACLE"
        DC8 0, 0, 0

        SECTION `.rodata`:CONST:REORDER:NOROOT(2)
        DATA
        DC8 "NO"
        DC8 0

        SECTION `.rodata`:CONST:REORDER:NOROOT(2)
        DATA
        DC8 "y1"
        DC8 0

        SECTION `.rodata`:CONST:REORDER:NOROOT(2)
        DATA
        DC8 "x1"
        DC8 0

        SECTION `.rodata`:CONST:REORDER:NOROOT(2)
        DATA
        DC8 "m1"
        DC8 0

        SECTION `.rodata`:CONST:REORDER:NOROOT(2)
        DATA
        DC8 "x2"
        DC8 0

        SECTION `.rodata`:CONST:REORDER:NOROOT(2)
        DATA
        DC8 "y2"
        DC8 0

        SECTION `.rodata`:CONST:REORDER:NOROOT(2)
        DATA
        DC8 "xe"
        DC8 0

        SECTION `.rodata`:CONST:REORDER:NOROOT(2)
        DATA
        DC8 "rd"
        DC8 0

        SECTION `.rodata`:CONST:REORDER:NOROOT(2)
        DATA
        DC8 "dr"
        DC8 0

        SECTION `.rodata`:CONST:REORDER:NOROOT(2)
        DATA
        DC8 "err"

        SECTION `.rodata`:CONST:REORDER:NOROOT(2)
        DATA
        DC8 "spd"

        SECTION `.rodata`:CONST:REORDER:NOROOT(2)
        DATA
        DC8 "set"

        SECTION `.rodata`:CONST:REORDER:NOROOT(2)
        DATA
        DC8 "sta"

        SECTION `.rodata`:CONST:REORDER:NOROOT(2)
        DATA
        DC8 "run"

        SECTION `.rodata`:CONST:REORDER:NOROOT(2)
        DATA
        DC8 "dis"

        SECTION `.rodata`:CONST:REORDER:NOROOT(2)
        DATA
        DC8 "yaw"

        SECTION `.rodata`:CONST:REORDER:NOROOT(2)
        DATA
?_33:
        DC8 " no "
        DC8 0, 0, 0

        SECTION `.rodata`:CONST:REORDER:NOROOT(2)
        DATA
        DC8 "ye"
        DC8 0

        SECTION `.rodata`:CONST:REORDER:NOROOT(2)
        DATA
        DC8 "er"
        DC8 0

        SECTION `.rodata`:CONST:REORDER:NOROOT(2)
        DATA
        DC8 "ans"

        SECTION `.rodata`:CONST:REORDER:NOROOT(2)
        DATA
        DC8 "dir"

        SECTION `.rodata`:CONST:REORDER:NOROOT(1)
        DATA
        DC8 "g"

        SECTION `.rodata`:CONST:REORDER:NOROOT(1)
        DATA
        DC8 "v"

        SECTION `.rodata`:CONST:REORDER:NOROOT(2)
        DATA
        DC8 "aus"

        SECTION `.rodata`:CONST:REORDER:NOROOT(2)
        DATA
        DC8 "rs"
        DC8 0

        SECTION `.rodata`:CONST:REORDER:NOROOT(2)
        DATA
        DC8 "ds"
        DC8 0

        SECTION `.rodata`:CONST:REORDER:NOROOT(2)
        DATA
        DC8 "sp"
        DC8 0

        SECTION `.rodata`:CONST:REORDER:NOROOT(2)
        DATA
        DC8 "yv"
        DC8 0

        SECTION `.rodata`:CONST:REORDER:NOROOT(2)
        DATA
        DC8 "ya"
        DC8 0

        SECTION `.rodata`:CONST:REORDER:NOROOT(2)
        DATA
        DC8 "gzb"

        SECTION `.rodata`:CONST:REORDER:NOROOT(2)
        DATA
        DC8 "pv"
        DC8 0

        SECTION `.rodata`:CONST:REORDER:NOROOT(2)
        DATA
        DC8 "pa"
        DC8 0

        SECTION `.rodata`:CONST:REORDER:NOROOT(2)
        DATA
        DC8 "rv"
        DC8 0

        SECTION `.rodata`:CONST:REORDER:NOROOT(2)
        DATA
        DC8 "ra"
        DC8 0

        SECTION `.rodata`:CONST:REORDER:NOROOT(2)
        DATA
        DC8 "pw"
        DC8 0

        SECTION `.rodata`:CONST:REORDER:NOROOT(2)
        DATA
        DC8 "st"
        DC8 0

        SECTION `.rodata`:CONST:REORDER:NOROOT(2)
        DATA
        DC8 "te"
        DC8 0

        SECTION `.rodata`:CONST:REORDER:NOROOT(2)
        DATA
        DC8 "no"
        DC8 0

        SECTION `.rodata`:CONST:REORDER:NOROOT(2)
        DATA
?_55:
        DC8 "error"
        DC8 0, 0

        SECTION `.rodata`:CONST:REORDER:NOROOT(2)
        DATA
?_56:
        DC8 "s_first"

        SECTION `.rodata`:CONST:REORDER:NOROOT(2)
        DATA
?_57:
        DC8 "o_first"

        SECTION `.rodata`:CONST:REORDER:NOROOT(2)
        DATA
        DC8 "IU"
        DC8 0

        SECTION `.rodata`:CONST:REORDER:NOROOT(2)
        DATA
        DC8 "cf"
        DC8 0

        SECTION `.rodata`:CONST:REORDER:NOROOT(2)
        DATA
        DC8 "os"
        DC8 0

        SECTION `.rodata`:CONST:REORDER:NOROOT(2)
        DATA
        DC8 "ag"
        DC8 0

        SECTION `.rodata`:CONST:REORDER:NOROOT(2)
        DATA
        DC8 "of"
        DC8 0

        SECTION `.rodata`:CONST:REORDER:NOROOT(2)
        DATA
        DC8 "oc"
        DC8 0

        SECTION `.rodata`:CONST:REORDER:NOROOT(2)
        DATA
        DC8 "ID"
        DC8 0

        SECTION `.rodata`:CONST:REORDER:NOROOT(2)
        DATA
        DC8 "sc"
        DC8 0

        SECTION `.rodata`:CONST:REORDER:NOROOT(2)
        DATA
        DC8 "ce"
        DC8 0

        SECTION `.rodata`:CONST:REORDER:NOROOT(2)
        DATA
        DC8 "s1"
        DC8 0

        SECTION `.rodata`:CONST:REORDER:NOROOT(2)
        DATA
        DC8 "s2"
        DC8 0

        SECTION `.rodata`:CONST:REORDER:NOROOT(2)
        DATA
        DC8 "ps"
        DC8 0

        SECTION `.rodata`:CONST:REORDER:NOROOT(2)
        DATA
        DC8 "ba"
        DC8 0

        SECTION `.rodata`:CONST:REORDER:NOROOT(2)
        DATA
        DC8 "sa"
        DC8 0

        SECTION `.rodata`:CONST:REORDER:NOROOT(2)
        DATA
        DC8 "if"
        DC8 0

        END
// 
//   396 bytes in section .rodata
// 4 064 bytes in section .text
// 
// 4 064 bytes of CODE  memory
//   396 bytes of CONST memory
//
//Errors: none
//Warnings: none
